case_action_id	case_id	actor	action	description	date_time	file_reference_number	last_indexed
11535	11513		Suggestion of bankruptcy filed	Suggestion of banruptcy of Sandra Minelli A/K/A Sandra J Minelli filed (11 U.S.C. ยง362).	2015-03-06 00:00:00	12	2017-02-05 14:49:43
11946	11929		Suggestion of bankruptcy filed	Suggestion of banruptcy of Lynne Richmond filed (11 U.S.C. ยง362).	2015-01-09 00:00:00	8	2017-02-05 14:49:43
11966	11949		Suggestion of bankruptcy filed	Suggestion of banruptcy of Lynne Richmond filed (11 U.S.C. ยง362).	2015-01-09 00:00:00	8	2017-02-05 14:49:43
12342	12322		Release of All Demands and Ass	Release of All Demands and Assent to Account of Andrew Mullen by Marguerite Mullen, mother	2011-12-22 00:00:00	0	2017-02-05 14:49:43
12343	12322		Release of All Demands and Ass	Release of All Demands and Assent to Account by Jeanne Braham	2011-12-22 00:00:00	0	2017-02-05 14:49:43
12346	12322		Release of All Demands and Ass	Release of All Demands and Assent to Account by Sophia Buck by Mary Jeanne Buck, mother	2011-12-29 00:00:00	0	2017-02-05 14:49:43
12347	12322		Release of All Demands and Ass	Release of All Demands and Assent to Account by Victoria Buck	2011-12-29 00:00:00	0	2017-02-05 14:49:43
12348	12322		Release of All Demands and Ass	Release of All Demands and Assent to Account by Mary Jeanne Buck	2011-12-29 00:00:00	0	2017-02-05 14:49:43
12359	12353		Counsel added	Attorney Goldberg, Esq., David S. representing Cavalry Portfolio Services,LLC As Assignee of Cavalry SPV I,LLC as assignee of Bank Of America/FIA Card Services,N.A. as of Tue Oct 18 00:00:00 EDT 2011	2011-10-18 00:00:00	1	2017-02-05 14:49:43
12548	12541		Counsel added	Attorney Sardella, Esq., Todd Michael representing Capital One Bank (USA),N.A. as of Tue Oct 18 00:00:00 EDT 2011	2011-10-18 00:00:00	1	2017-02-05 14:49:43
12797	12769		Suggestion of bankruptcy filed	Suggestion of banruptcy of Gary Gauthier D/B/A Rusty G'S Place filed (11 U.S.C. 362).	2014-05-29 00:00:00	1	2017-02-05 14:49:43
12942	12934		UCC filed	Uniform Counsel Certification Form Filed by

Attorney McDowell-May Esq., Laura	2012-04-09 00:00:00	0	2017-02-05 14:49:43
13042	13034		Counsel added	Attorney Wiener, Esq., Stephen A. representing Capital One Bank (USA) NA as of Tue May 17 00:00:00 EDT 2011	2011-05-17 00:00:00	1	2017-02-05 14:49:43
13126	13105		Counsel added	Attorney Wiener, Esq., Stephen A. representing Midland Funding as of 06/30/2011	2011-06-30 00:00:00	5	2017-02-05 14:49:43
13332	13326		UCC filed	Uniform Counsel Certification Form Filed by	2011-06-15 00:00:00	0	2017-02-05 14:49:43
13338	13326		Notice of claim	Notice of Claim	2011-07-07 00:00:00	0	2017-02-05 14:49:43
13347	13326		Notice of claim	Notice of Claim	2012-01-12 00:00:00	0	2017-02-05 14:49:43
13392	13382		Counsel added	Attorney Cohen, Esq., Jeremy Moss representing Main Street Acquisition Corp As Assignee of Hsbc as of Tue Sep 13 00:00:00 EDT 2011	2011-09-13 00:00:00	0	2017-02-05 14:49:43
13675	13665		Counsel added	Attorney Bisesi, Esq., Mollie S. representing News Printing and Publishing Company, Inc. of Worcester D/B/A Saltus Press as of Wed Aug 31 00:00:00 EDT 2011	2011-08-31 00:00:00	1	2017-02-05 14:49:43
13768	13762		Counsel added	Attorney Wilson, Esq., Kenneth C representing LVNV Funding LLC As Assignee of GE Capital / Peach Direct as of Wed Oct 12 00:00:00 EDT 2011	2011-10-12 00:00:00	1	2017-02-05 14:49:43
13916	13906		Counsel added	Attorney Rossi, Esq., Robert V representing Dental Services PC as of Tue May 17 00:00:00 EDT 2011	2011-05-17 00:00:00	1	2017-02-05 14:49:43
13938	13934		Suggestion of death filed	Suggestion of Death of Laura Ellen Monahan	2012-04-09 00:00:00	0	2017-02-05 14:49:43
13940	13934		Suggestion of death filed	Suggestion of Death of Patricia Farrel Morris	2012-04-09 00:00:00	0	2017-02-05 14:49:43
13946	13934		UCC filed	Uniform Counsel Certification Form Filed by	2012-04-09 00:00:00	0	2017-02-05 14:49:43
14061	14050		Counsel added	Attorney Wilson, Esq., Kenneth C representing FIA Card Services, N.A. as of Wed Aug 31 00:00:00 EDT 2011	2011-08-31 00:00:00	1	2017-02-05 14:49:43
14310	14287		Counsel added	Attorney Cambece, Esq., James Anthony representing ANJ Corp. as of Mon Apr 25 00:00:00 EDT 2011	2011-04-25 00:00:00	1	2017-02-05 14:49:43
14570	14556		Counsel added	Attorney Wilson, Esq., Kenneth C representing Midland Funding LLC As Assignee of Cit Bank as of Wed Aug 31 00:00:00 EDT 2011	2011-08-31 00:00:00	1	2017-02-05 14:49:43
14588	14556		Suggestion of bankruptcy filed	Suggestion of bankruptcy of Michael Youngs filed (11 U.S.C. 362).	2012-10-17 00:00:00	15	2017-02-05 14:49:43
14596	14590		Counsel added	Attorney Sardella, Esq., Todd Michael representing Capital One Bank (USA) NA as of Tue May 17 00:00:00 EDT 2011	2011-05-17 00:00:00	1	2017-02-05 14:49:43
14612	14601		Counsel added	Attorney Wilson, Esq., Kenneth C representing Atlantic Credit & Finance Inc As Assignee of HSBC Consumer Lending (USA) Inc as of Wed Oct 19 00:00:00 EDT 2011	2011-10-19 00:00:00	1	2017-02-05 14:49:43
14837	14823		Counsel added	Attorney Wilson, Esq., Kenneth C representing FIA Card Services, N.A. as of Mon Nov 07 00:00:00 EST 2011	2011-11-07 00:00:00	1	2017-02-05 14:49:43
14844	14823		Counsel added	On this date 02/08/2012 Murray, Esq., Brian W added as Private Counsel for Mazzarelli, Peter J	2012-02-08 00:00:00	8	2017-02-05 14:49:43
15017	14992		Counsel added	Attorney Fonte, Esq., David Joseph representing Great American Opportunities, Inc. as of Thu Dec 09 00:00:00 EST 2010	2010-12-09 00:00:00	0	2017-02-05 14:49:43
15426	15412		Counsel added	Attorney Wilson, Esq., Kenneth C representing LVNV Funding LLC, As Assignee of Citibank (South Dakota), NA / Sears Mastercard as of Thu Sep 01 00:00:00 EDT 2011	2011-09-01 00:00:00	1	2017-02-05 14:49:43
15444	15412		Counsel added	Attorney Colognesi, Esq., Michael J representing Southbridge Sheet Metal Works as of 11/23/2011	2011-11-23 00:00:00	12	2017-02-05 14:49:43
15516	15501		Suggestion of bankruptcy filed	Suggestion of bankruptcy of Tanya L Gay filed (11 U.S.C. 362).	2014-03-20 00:00:00	4	2017-02-05 14:49:43
15531	15522		Counsel added	Attorney Anctil, Esq., Robert W. representing Active Adult Living at Ocean Meadow, LLC as of Fri Sep 30 00:00:00 EDT 2011	2011-09-30 00:00:00	1	2017-02-05 14:49:43
15534	15522		Motion for summary judgment	Misc Entry: Fax received from defendant's attorney regarding motion for summary judgment- as instructed by the court on 10/13/11	2011-10-14 00:00:00	0	2017-02-05 14:49:43
15783	15772		Counsel added	Attorney Reczek, Esq., Erin M. representing Discover as of Mon Apr 25 00:00:00 EDT 2011	2011-04-25 00:00:00	1	2017-02-05 14:49:43
15794	15772		Suggestion of bankruptcy filed	Suggestion of bankruptcy of Sarah V Pierson filed (11 U.S.C. 362).	2014-12-10 00:00:00	9	2017-02-05 14:49:43
15933	15923		Notice to quit filed	Notice to quit filed	2010-06-07 00:00:00	0	2017-02-05 14:49:43
15936	15923		Military affidavit filed	Military Service and Rule 10 Affidavit	2010-06-24 00:00:00	0	2017-02-05 14:49:43
16091	16070		Request for continuance	Parties jointly request that case be continued while payment is being made.	2014-08-07 00:00:00	0	2017-02-05 14:49:43
16215	16210		Counsel added	Attorney Lanza, Esq., Darren J. representing Worker's Credit Union as of Mon Jul 11 00:00:00 EDT 2011	2011-07-26 00:00:00	0	2017-02-05 14:49:43
16274	16269		Assent And Waiver Of Notice fi	An Interested Person,Merrill C. Gyles. Jr.

New Ipswich, NH , Filed MPC 455 toAssent And Waiver Of Notice, Renunciation

06/13/2014	2014-06-13 00:00:00	0	2017-02-05 14:49:43
16277	16269		UCC filed	Uniform Counsel Certification Form Filed by	2014-06-13 00:00:00	0	2017-02-05 14:49:43
16335	16325		Notice to quit filed	Notice to quit filed	2010-07-12 00:00:00	2	2017-02-05 14:49:43
16564	16549		Counsel added	Attorney Wilson, Esq., Kenneth C representing Citibank, N.A. As successor by merger to Citibank (South Dakota), N.A. as of Thu Sep 01 00:00:00 EDT 2011	2011-09-01 00:00:00	1	2017-02-05 14:49:43
16598	16591		Notice to quit filed	Notice to quit filed	2011-04-27 00:00:00	2	2017-02-05 14:49:43
16723	16701		Suggestion of bankruptcy filed	Suggestion of bankruptcy of Edward Johnson filed (11 U.S.C. 362).	2014-10-31 00:00:00	6	2017-02-05 14:49:43
16930	16920		Counsel added	Attorney Wilson, Esq., Kenneth C representing Citibank (South Dakota) as of Mon Apr 25 00:00:00 EDT 2011	2011-04-25 00:00:00	1	2017-02-05 14:49:43
17067	17053		Counsel added	Attorney Wilson, Esq., Kenneth C representing LVNV Funding LLC As Assignee of Citibank / Sears Gold Mastercard as of Wed Oct 12 00:00:00 EDT 2011	2011-10-12 00:00:00	1	2017-02-05 14:49:43
17476	17463		Counsel added	Attorney Wilson, Esq., Kenneth C representing Midland Funding LLC assignee of Citibank as of Mon Nov 07 00:00:00 EST 2011	2011-11-07 00:00:00	1	2017-02-05 14:49:43
17543	17530		Suggestion of bankruptcy filed	Suggestion of bankruptcy of Thomas H Lafountain, Sr filed (11 U.S.C. 362).	2014-02-19 00:00:00	4	2017-02-05 14:49:43
17798	17791		Counsel added	Attorney O'Connor, Esq., Mark representing Medford Recreational Hockey Ass'n as of Wed Sep 14 00:00:00 EDT 2011	2011-09-14 00:00:00	0	2017-02-05 14:49:43
17838	17826		Suggestion of bankruptcy filed	Suggestion of bankruptcy of D01  HECTOR HERNANDEZ filed (11 U.S.C. 362).	2011-01-05 00:00:00	0	2017-02-05 14:49:43
17937	17932		Counsel added	Attorney Wiener, Esq., Stephen A. representing Palisades Collection, LLC as of Thu Dec 09 00:00:00 EST 2010	2010-12-09 00:00:00	0	2017-02-05 14:49:43
17991	17978		Suggestion of bankruptcy filed	Suggestion of bankruptcy of [Party] filed (11 U.S.C. 362).	2011-06-06 00:00:00	1	2017-02-05 14:49:43
18083	18072		Counsel added	Attorney Cohen, Esq., Jeremy Moss representing First Resolution Investment Corporation as of Thu Oct 20 00:00:00 EDT 2011	2011-10-20 00:00:00	1	2017-02-05 14:49:43
18102	18095		Counsel added	Attorney Sardella, Esq., Todd Michael representing Capital One Bank (USA) as of Tue May 17 00:00:00 EDT 2011	2011-05-17 00:00:00	1	2017-02-05 14:49:43
18320	18313		Notice to quit filed	Notice to quit filed	2011-04-27 00:00:00	2	2017-02-05 14:49:43
18338	18326		Counsel added	Attorney Wilson, Esq., Kenneth C representing Citibank (South Dakota) as of Mon Apr 25 00:00:00 EDT 2011	2011-04-25 00:00:00	1	2017-02-05 14:49:43
18359	18351		Notice to quit filed	Notice to quit filed	2010-07-12 00:00:00	2	2017-02-05 14:49:43
18362	18351		Military affidavit filed	Military Service and Rule 10 Affidavit	2010-07-22 00:00:00	4	2017-02-05 14:49:43
18445	18435		Suggestion of bankruptcy filed	Suggestion of bankruptcy of Sally Murdock filed (11 U.S.C. 362).	2014-01-02 00:00:00	4	2017-02-05 14:49:43
18454	18448		Counsel added	Attorney Olshan, Esq., Adam J. representing Capital One Bank (USA) N.A. as of Tue Oct 04 00:00:00 EDT 2011	2011-10-04 00:00:00	1	2017-02-05 14:49:43
18661	18654		Counsel added	Attorney Sardella, Esq., Todd Michael representing Capital One Bank (USA) NA as of Tue May 17 00:00:00 EDT 2011	2011-05-17 00:00:00	1	2017-02-05 14:49:43
18778	18754		Counsel added	On this date 12/29/2011 Brousseau, Esq., Thomas W added as Private Counsel for Chito, Michael L	2012-01-19 00:00:00	2	2017-02-05 14:49:43
18845	18838		UCC filed	Uniform Counsel Certification Form Filed by	2014-06-13 00:00:00	0	2017-02-05 14:49:43
18928	18915		Counsel added	Attorney Wilson, Esq., Kenneth C representing Citibank (South Dakota) as of Mon Apr 25 00:00:00 EDT 2011	2011-04-25 00:00:00	1	2017-02-05 14:49:43
18933	18915		Suggestion of bankruptcy filed	Suggestion of bankruptcy of [Arne R. Rengo] filed (11 U.S.C. 362).	2011-05-31 00:00:00	8	2017-02-05 14:49:43
18952	18945		Counsel added	Attorney Wiener, Esq., Stephen A. representing Midland Funding, LLC as of Thu Sep 29 00:00:00 EDT 2011	2011-09-29 00:00:00	1	2017-02-05 14:49:43
19029	19018		Counsel added	Attorney Wilson, Esq., Kenneth C representing Atlantic Credit & Finance, Inc As Assignee of HSBC Consumer Lending (USA) Inc as of Thu Oct 20 00:00:00 EDT 2011	2011-10-20 00:00:00	1	2017-02-05 14:49:43
19053	19041		Counsel added	Attorney Wilson, Esq., Kenneth C representing Midland Funding LLC As Assignee of Chase Bank USA, N.A. as of Tue Aug 02 00:00:00 EDT 2011	2011-09-01 00:00:00	0	2017-02-05 14:49:43
19063	19041		Motion to compel discovery	Motion  to compel production of documents allowed Hon. Patricia T Poehler

	2012-01-10 00:00:00	0	2017-02-05 14:49:43
19525	19514		Counsel added	Attorney Lustig, Esq., Ronald E representing Midland Funding LLC As Assignee of Citibank as of Wed Oct 12 00:00:00 EDT 2011	2011-10-12 00:00:00	1	2017-02-05 14:49:43
19636	19624		Notice to quit filed	Notice to quit filed	2010-06-07 00:00:00	0	2017-02-05 14:49:43
19641	19624		Military affidavit filed	Military Service and Rule 10 Affidavit	2010-10-19 00:00:00	0	2017-02-05 14:49:43
19645	19624		Military affidavit filed	Military Service and Rule 10 Affidavit	2010-12-17 00:00:00	0	2017-02-05 14:49:43
19995	19985		Counsel added	Attorney Barletta, Esq., Jonathan representing Jefferson Capital Systems LLC as of Sat Sep 17 00:00:00 EDT 2011	2011-09-17 00:00:00	0	2017-02-05 14:49:43
20016	20006		Counsel added	Attorney Wiener, Esq., Stephen A. representing Midland Funding, LLC. as of Tue Oct 04 00:00:00 EDT 2011	2011-10-04 00:00:00	1	2017-02-05 14:49:43
20137	20124		Counsel added	Attorney Kreppel, Esq., Gary Howard representing Capital One Bank (USA) as of Tue May 17 00:00:00 EDT 2011	2011-05-17 00:00:00	1	2017-02-05 14:49:43
20242	20237		Counsel added	Attorney Wilson, Esq., Kenneth C representing Citibank, N.A. successor by merger to as of Wed Aug 31 00:00:00 EDT 2011	2011-09-19 00:00:00	1	2017-02-05 14:49:43
20379	20368		Notice to quit filed	Notice to quit filed	2010-07-12 00:00:00	2	2017-02-05 14:49:43
20462	20457		Assent And Waiver Of Notice fi	An Interested Person,John G. O'Callaghan

Winchester, MA , Filed MPC 455 toAssent And Waiver Of Notice

06/13/2014	2014-06-13 00:00:00	0	2017-02-05 14:49:43
20463	20457		Assent And Waiver Of Notice fi	An Interested Person,Jane Lennon

Canton, MA , Filed MPC 455 toAssent And Waiver Of Notice

06/13/2014	2014-06-13 00:00:00	0	2017-02-05 14:49:43
20466	20457		UCC filed	Uniform Counsel Certification Form Filed by	2014-06-13 00:00:00	0	2017-02-05 14:49:43
20478	20473		Counsel added	Attorney Wiener, Esq., Stephen A. representing RAB Performance Recoveries, LLC as of Thu Dec 09 00:00:00 EST 2010	2010-12-09 00:00:00	0	2017-02-05 14:49:43
20563	20557		Counsel added	Attorney Wilson, Esq., Kenneth C representing Citibank, N.A. successor by merger to as of Wed Aug 31 00:00:00 EDT 2011	2011-09-19 00:00:00	1	2017-02-05 14:49:43
20619	20611		Counsel added	Attorney Sardella, Esq., Todd Michael representing Capital One Bank (USA), N.A. as of Tue Oct 18 00:00:00 EDT 2011	2011-10-18 00:00:00	1	2017-02-05 14:49:43
20788	20778		Counsel added	Attorney Cohn, Esq., Lewis Jason representing American Home Assurance Co. as of Mon Apr 25 00:00:00 EDT 2011	2011-04-25 00:00:00	1	2017-02-05 14:49:43
20841	20832		Counsel added	Attorney Rossi, Esq., Robert V representing Triant,  DDS, James as of Wed May 18 00:00:00 EDT 2011	2011-05-18 00:00:00	1	2017-02-05 14:49:43
20976	20968		Counsel added	Attorney Olshan, Esq., Adam J. representing RAB Performance Recoveries,LLC as of Tue Oct 04 00:00:00 EDT 2011	2011-10-04 00:00:00	1	2017-02-05 14:49:43
21574	21540		Motion for summary judgment	Misc Entry: BRIEF IN SUPPORT OF PLAINTIIFF'S MOTION FOR SUMMARY JUDGMENT	2015-04-08 00:00:00	0	2017-02-05 14:49:43
21635	21630		Counsel added	Attorney Wilson, Esq., Kenneth C representing Citibank, N.A. successor by merger to as of Wed Aug 31 00:00:00 EDT 2011	2011-09-19 00:00:00	1	2017-02-05 14:49:43
21828	21822		Notice of claim	Notice of Claim	2014-11-04 00:00:00	0	2017-02-05 14:49:43
21980	21972		Notice to quit filed	Notice to quit filed	2010-07-12 00:00:00	2	2017-02-05 14:49:43
21983	21972		Military affidavit filed	Military Service and Rule 10 Affidavit	2010-07-27 00:00:00	4	2017-02-05 14:49:43
22052	22038		Suggestion of bankruptcy filed	Suggestion of bankruptcy of Gregory R Ballarino A/K/A Greg Ballarino filed (11 U.S.C. 362).	2013-09-30 00:00:00	5	2017-02-05 14:49:43
22116	22103		Counsel added	Attorney Wilson, Esq., Kenneth C representing Ford Motor Credit Company, LLC as of Tue Apr 26 00:00:00 EDT 2011	2011-04-26 00:00:00	1	2017-02-05 14:49:43
22172	22161		Counsel added	Attorney Ryan, Esq., Timothy J representing Cocchi, Paul B as of Thu Nov 17 00:00:00 EST 2011	2011-11-17 00:00:00	2	2017-02-05 14:49:43
22305	22300		Counsel added	Attorney Wilson, Esq., Kenneth C representing Citibank, N.A. successor by merger to as of Wed Aug 31 00:00:00 EDT 2011	2011-09-19 00:00:00	1	2017-02-05 14:49:43
22368	22360		Counsel added	On this date 02/15/2012 Howard, Esq., Edwin Herbert added as Private Counsel for Pusateri & Pusateri PC	2012-02-15 00:00:00	1	2017-02-05 14:49:43
22550	22537		Counsel added	Attorney Brandow, Esq., Laura White representing Trustees of Webster Place Unit Owners Condominium Trust as of Wed Oct 12 00:00:00 EDT 2011	2011-10-12 00:00:00	1	2017-02-05 14:49:43
22748	22740		Counsel added	Attorney Wiener, Esq., Stephen A. representing Midland Funding, LLC as of Thu Sep 29 00:00:00 EDT 2011	2011-09-29 00:00:00	1	2017-02-05 14:49:43
23077	23068		Military affidavit filed	Military Service and Rule 10 Affidavit	2013-09-26 00:00:00	0	2017-02-05 14:49:43
23131	23119		Notice to quit filed	Notice to quit filed	2010-06-07 00:00:00	0	2017-02-05 14:49:43
23135	23119		Military affidavit filed	Military Service and Rule 10 Affidavit	2010-09-02 00:00:00	0	2017-02-05 14:49:43
23149	23142		Counsel added	Attorney Foster, Esq., Charles F representing ZZZ Tech Sleep Lab as of Thu Dec 16 00:00:00 EST 2010	2010-12-16 00:00:00	0	2017-02-05 14:49:43
23155	23142		Counsel added	Attorney Neal, III, Esq., Edmond A representing ZZZ Tech Sleep Lab as of 03/21/2011	2011-03-21 00:00:00	4	2017-02-05 14:49:43
23221	23209		Counsel added	Attorney Wilson, Esq., Kenneth C representing Citibank, N.A. As successor by merger to Citibank (South Dakota), N.A. as of Thu Jul 28 00:00:00 EDT 2011	2011-07-28 00:00:00	0	2017-02-05 14:49:43
23642	23631		Suggestion of bankruptcy filed	Suggestion of bankruptcy of D01  MARGARET WHITE filed (11 U.S.C. 362).	2010-04-29 00:00:00	0	2017-02-05 14:49:43
23722	23705		Suggestion of bankruptcy filed	Suggestion of bankruptcy of Mary Gnoza filed (11 U.S.C. 362).	2014-08-04 00:00:00	7	2017-02-05 14:49:43
24109	24100		Counsel added	Attorney Keramaris, Esq., John representing Allain, Gary P as of Wed Jul 13 00:00:00 EDT 2011	2011-07-13 00:00:00	0	2017-02-05 14:49:43
24133	24122		Notice to quit filed	Notice to quit filed	2010-07-28 00:00:00	3	2017-02-05 14:49:43
24134	24122		Military affidavit filed	Military Service and Rule 10 Affidavit	2010-07-28 00:00:00	4	2017-02-05 14:49:43
24149	24141		Counsel added	Attorney Sandlin, Esq., Charlene M. representing LVNV Funding, LLC as of Tue Oct 04 00:00:00 EDT 2011	2011-10-04 00:00:00	1	2017-02-05 14:49:43
24211	24198		Counsel added	Attorney Brinkman, Esq., John M. representing Stanford, Cynthia as of Wed Oct 12 00:00:00 EDT 2011	2011-10-12 00:00:00	1	2017-02-05 14:49:43
24220	24198		Counsel added	On this date 12/27/2011 Bosse, Esq., Peter L. added as Private Counsel for Sweeney, Alexander	2012-01-13 00:00:00	7	2017-02-05 14:49:43
24221	24198		Counsel added	On this date 12/27/2011 Bosse, Esq., Peter L. added as Private Counsel for Sweeney ( 3rd party plaintiff), Alexander	2012-01-13 00:00:00	8	2017-02-05 14:49:43
24223	24198		Counsel added	On this date 02/09/2012 Lynch, III, Esq., Francis John added as Private Counsel for Waterman (3rd party defendant), Tammy	2012-02-09 00:00:00	9	2017-02-05 14:49:43
24225	24198		Motion to transfer	Misc Entry:Copy of Motion to transfer civil action from Ply DC snd consolidate with Superior Court No. PLCV2011-01167-B filed (original motion filed in Superior Court)	2012-03-15 00:00:00	0	2017-02-05 14:49:43
24281	24273		Counsel added	Attorney Cox, Esq., Aaron representing ANJ Corporation as of Thu Nov 03 00:00:00 EDT 2011	2011-11-03 00:00:00	1	2017-02-05 14:49:43
24441	24432		Counsel added	Attorney Osol, Esq., Robert representing Harvard Funding LLC As Assignee of Belden Jewelers as of Tue Oct 04 00:00:00 EDT 2011	2011-10-04 00:00:00	1	2017-02-05 14:49:43
24743	24697		Motion for summary judgment	Defendant Burnham Corporation's MOTION for Summary Judgment, pursuant
to Mass.R.Civ.P. 56; Memorandum in support of; Sup. Crt. Rule
9A(b)(5) Statement of Undisputed Material Facts to accompany the
deft's motion; Plffs' opposition to deft's motion; Affidavit of
Compliance with Sup. Crt. Rule 9A	2011-04-26 00:00:00	21	2017-02-05 14:49:43
24799	24788		Counsel added	Attorney Wilson, Esq., Kenneth C representing Volvo Car Finance North America as of Mon May 16 00:00:00 EDT 2011	2011-05-16 00:00:00	1	2017-02-05 14:49:43
24831	24820		Counsel added	Attorney Wiener, Esq., Stephen A. representing Capital One Bank (USA), N.A. as of Fri Sep 02 00:00:00 EDT 2011	2011-09-02 00:00:00	1	2017-02-05 14:49:43
24922	24912		Suggestion of bankruptcy filed	Suggestion of banruptcy of Deirdre M Grimley filed (11 U.S.C. 362).
U.S. Bankruptcy Case No. 14-40756	2014-04-28 00:00:00	4	2017-02-05 14:49:43
25088	25077		Counsel added	Attorney Foster, Esq., Charles F representing ZZZ Tech Sleep Lab as of Thu Dec 16 00:00:00 EST 2010	2010-12-16 00:00:00	0	2017-02-05 14:49:43
25095	25077		Counsel added	Attorney Neal, III, Esq., Edmond A representing ZZZ Tech Sleep Lab as of 03/29/2011	2011-03-29 00:00:00	5	2017-02-05 14:49:43
25380	25372		Counsel added	Attorney Brandow, Esq., Laura White representing Trustees of Webster Place Unit Owners Condominium Trust as of Wed Oct 12 00:00:00 EDT 2011	2011-10-12 00:00:00	1	2017-02-05 14:49:43
25614	25601		Counsel added	Attorney Wiener, Esq., Stephen A. representing Midland Funding, LLC As Assignee of Citibank USA, N.A. as of Fri Sep 02 00:00:00 EDT 2011	2011-09-02 00:00:00	1	2017-02-05 14:49:43
25640	25629		Counsel added	Attorney Seitsinger, Esq., Roger Mark representing Unifund Corporation as of Mon Oct 03 00:00:00 EDT 2011	2011-10-03 00:00:00	1	2017-02-05 14:49:43
25848	25841		Notice to quit filed	Notice to quit filed	2010-07-12 00:00:00	2	2017-02-05 14:49:43
25886	25855		Motion to assess damages	Motion to assess damages filed on 9-28-12 to be heard on 5-2-13	2013-04-02 00:00:00	0	2017-02-05 14:49:43
25901	25895		Counsel added	Attorney Wilson, Esq., Kenneth C representing CITIBANK (SOUTH DAKOTA) NA as of Mon May 16 00:00:00 EDT 2011	2011-05-16 00:00:00	1	2017-02-05 14:49:43
26032	25983		Suggestion of bankruptcy filed	Suggestion of bankruptcy of [Party] filed (11 U.S.C. 362). (11-11685)	2011-03-03 00:00:00	1	2017-02-05 14:49:43
26185	26179		Counsel added	Attorney Campbell, Esq., Alisa Katz representing Trinity EMS, INC. as of Thu Sep 29 00:00:00 EDT 2011	2011-09-29 00:00:00	1	2017-02-05 14:49:43
26260	26253		Counsel added	Attorney Billeri, Esq., Sarah A. representing Federal Home Mortgage Corporation as of Fri Aug 05 00:00:00 EDT 2011	2011-08-05 00:00:00	0	2017-02-05 14:49:43
26357	26346		Counsel added	Attorney Wiener, Esq., Stephen A. representing Capital One Bank (USA) N.A. as of Fri Sep 02 00:00:00 EDT 2011	2011-09-02 00:00:00	1	2017-02-05 14:49:43
26483	26478		Counsel added	Attorney Titlebaum, Esq., Joseph E representing Cavalry SPVI, LLC, Assignee of Washington Mutual as of Tue Oct 04 00:00:00 EDT 2011	2011-10-04 00:00:00	1	2017-02-05 14:49:43
26603	26575		Counsel added	On this date 05/22/2012 Wilson, Esq., Kenneth C added as Private Counsel for Advantage Assets II Inc. As Assignee of Ctitibank (South Dakota) N.A.	2012-05-22 00:00:00	0	2017-02-05 14:49:43
26855	26851		Counsel added	Attorney Wilson, Esq., Kenneth C representing CITIBANK (SOUTH DAKOTA) NA as of Mon May 16 00:00:00 EDT 2011	2011-05-16 00:00:00	1	2017-02-05 14:49:43
26858	26851		Suggestion of bankruptcy filed	Suggestion of bankruptcy of [Party] filed (11 U.S.C. 362).	2011-05-18 00:00:00	2	2017-02-05 14:49:43
26922	26910		Counsel added	Attorney Wilson, Esq., Kenneth C representing Citibank (South Dakota) as of Thu Dec 16 00:00:00 EST 2010	2010-12-16 00:00:00	0	2017-02-05 14:49:43
26946	26939		UCC filed	Uniform Counsel Certification Form Filed by	2014-06-03 00:00:00	0	2017-02-05 14:49:43
27041	27029		Counsel added	Attorney Wilson, Esq., Kenneth C representing Citibank, N.A. As successor by merger to Citibank (South Dakota), N.A. as of Thu Jul 28 00:00:00 EDT 2011	2011-07-28 00:00:00	0	2017-02-05 14:49:43
27219	27211		Notice to quit filed	Notice to quit filed	2010-07-12 00:00:00	2	2017-02-05 14:49:43
27432	27421		Counsel added	Attorney Brink, Esq., David O representing Geico General insurance Company A Subrogee of Jose M Evora as of Wed Oct 12 00:00:00 EDT 2011	2011-10-12 00:00:00	1	2017-02-05 14:49:43
27445	27421		Counsel withdrawal	On this date 06/19/2012 Brink, Esq., David O dismissed/withdrawn as Private Counsel for Geico General insurance Company A Subrogee of Jose M Evora	2012-08-03 00:00:00	7	2017-02-05 14:49:43
27446	27421		Counsel added	On this date 08/03/2012 Brady, Esq., Hugh C.M. added as Private Counsel for Geico General insurance Company A Subrogee of Jose M Evora	2012-08-03 00:00:00	8	2017-02-05 14:49:43
27574	27565		Notice to quit filed	Notice to quit filed	2010-06-09 00:00:00	0	2017-02-05 14:49:43
27632	27617		Request for continuance	Parties jointly request that case be continued while payment is being made.	2014-01-27 00:00:00	0	2017-02-05 14:49:43
27679	27669		Counsel added	Attorney Sardella, Esq., Todd Michael representing Capital One Bank as of Fri Apr 22 00:00:00 EDT 2011	2011-04-22 00:00:00	1	2017-02-05 14:49:43
27795	27786		Counsel added	Attorney Kiser, Esq., Brian Michael representing HSBC Bank, USA< National ACE Securities Corp. Home Equity Loan Trust, Series 2006-OP1, Asset Backed Pass-Through Certificates as of Mon Oct 03 00:00:00 EDT 2011	2011-10-03 00:00:00	1	2017-02-05 14:49:43
27872	27860		Suggestion of bankruptcy filed	Suggestion of bankruptcy of Gary Lee filed (11 U.S.C. 362).	2013-02-20 00:00:00	6	2017-02-05 14:49:43
27971	27959		Counsel added	Attorney Wilson, Esq., Kenneth C representing FIA Card Service as of Thu Dec 16 00:00:00 EST 2010	2010-12-16 00:00:00	0	2017-02-05 14:49:43
27991	27981		Counsel added	Attorney Wilson, Esq., Kenneth C representing Midland Funding LLC assignee of Citibank USA, N.A. as of Fri Sep 02 00:00:00 EDT 2011	2011-09-16 00:00:00	1	2017-02-05 14:49:43
27998	27981		Suggestion of bankruptcy filed	Suggestion of bankruptcy of Stanley Marcyoniak A/K/A Stanley R Marcyoniak, Jr. filed (11 U.S.C. 362).
	2011-11-16 00:00:00	6	2017-02-05 14:49:43
28021	28016		Counsel added	Attorney Wilson, Esq., Kenneth C representing LVNV FUNDING LLC ASSIGNEE OF WASHINGTON MUTUAL as of Mon May 16 00:00:00 EDT 2011	2011-05-16 00:00:00	1	2017-02-05 14:49:43
28123	28115		Notice to quit filed	Notice to quit filed	2010-07-12 00:00:00	2	2017-02-05 14:49:43
28126	28115		Military affidavit filed	Military Service and Rule 10 Affidavit	2010-07-22 00:00:00	4	2017-02-05 14:49:43
28154	28145		Suggestion of bankruptcy filed	Suggestion of bankruptcy of D01  GINA M. MAGGIORE filed (11 U.S.C. 362).	2010-07-15 00:00:00	0	2017-02-05 14:49:43
28165	28145		Suggestion of bankruptcy filed	Suggestion of banruptcy of Gina M Maggiore filed (11 U.S.C. 362).
	2011-12-16 00:00:00	1	2017-02-05 14:49:43
28822	28816		Notice of claim	Notice of Claim	2014-10-06 00:00:00	0	2017-02-05 14:49:43
28928	28913		Suggestion of bankruptcy filed	Suggestion of bankruptcy of D01  C. N. M.  ELECTRICAL CONSTRUCTION, INC. filed (11 U.S.C. 362).	2011-05-09 00:00:00	0	2017-02-05 14:49:43
29069	29054		Counsel added	Attorney Sardella, Esq., Todd Michael representing Capital One Bank as of Fri Apr 22 00:00:00 EDT 2011	2011-04-22 00:00:00	1	2017-02-05 14:49:43
29165	29160		Counsel added	Attorney Kreppel, Esq., Gary Howard representing Capital One Bank (USA), N.A. as of Fri Sep 02 00:00:00 EDT 2011	2011-09-19 00:00:00	1	2017-02-05 14:49:43
29248	29242		Counsel added	Attorney Wilson, Esq., Kenneth C representing LVNV FUNDING LLC ASSIGNEE OF CITIBANK/SEARS as of Mon May 16 00:00:00 EDT 2011	2011-05-16 00:00:00	1	2017-02-05 14:49:43
29473	29424		Suggestion of bankruptcy filed	Suggestion of banruptcy of Robert Dorsey filed (11 U.S.C. 362).

#19	2013-07-12 00:00:00	19	2017-02-05 14:49:43
29482	29424		Suggestion of bankruptcy filed	Suggestion of banruptcy of Erik C Dorsey filed (11 U.S.C. 362).

#22	2013-10-21 00:00:00	22	2017-02-05 14:49:43
29727	29709		Counsel added	Attorney Wilson, Esq., Kenneth C representing Citibank, N.A. As successor by merger to Citibank (South Dakota), N.A. as of 09/12/2011	2011-09-12 00:00:00	0	2017-02-05 14:49:43
29805	29799		Counsel added	Attorney Wilson, Esq., Kenneth C representing Citibank, N.A. successory by merger to as of Fri Sep 02 00:00:00 EDT 2011	2011-09-19 00:00:00	1	2017-02-05 14:49:43
29901	29842		Motion for summary judgment	Defendant Burnham Corporation's MOTION for Summary Judgment, pursuant
to Mass.R.Civ.P. 56; Memorandum in support of; Sup. Crt. Rule
9A(b)(5) Statement of Undisputed Material Facts to accompany the
deft's motion; Plffs' opposition to deft's motion; Affidavit of
Compliance with Sup. Crt. Rule 9A	2011-04-26 00:00:00	29	2017-02-05 14:49:43
29935	29842		Motion for summary judgment	Defendant Homasote Company's MOTION for Summary Judgment, pursuant to
Mass.R.Civ.P. 56, Plaintiff's Opposition, Defendant's Response to
Statement of Facts Offered in their Opposition, Consolidated
Statement of Facts.	2011-05-24 00:00:00	61	2017-02-05 14:49:43
30049	30036		Counsel added	Attorney Campbell, Esq., Alisa Katz representing Trinity EMS, Inc. as of Thu Sep 29 00:00:00 EDT 2011	2011-09-29 00:00:00	1	2017-02-05 14:49:43
30222	30208		Counsel withdrawal	On this date 07/16/2012 Sardella, Esq., Todd Michael dismissed/withdrawn as Private Counsel for Capital One Bank (USA), N.A.	2012-07-26 00:00:00	0	2017-02-05 14:49:43
30223	30208		Counsel added	On this date 07/26/2012 Solomon, Esq., Julie B added as Private Counsel for Capital One Bank (USA), N.A.	2012-07-26 00:00:00	0	2017-02-05 14:49:43
30308	30303		Counsel added	Attorney Wilson, Esq., Kenneth C representing LVNV FUNDING LLC ASSIGNEE OF FCC  NATIONAL BANK as of Mon May 16 00:00:00 EDT 2011	2011-05-16 00:00:00	1	2017-02-05 14:49:43
30331	30313		Suggestion of bankruptcy filed	Suggestion of bankruptcy of Judith Gatchell filed (11 U.S.C. 362).	2011-01-27 00:00:00	0	2017-02-05 14:49:43
30422	30411		Counsel added	Attorney Maier, Esq., Frank J representing Gutter Tek, Inc. as of Fri Apr 22 00:00:00 EDT 2011	2011-04-22 00:00:00	1	2017-02-05 14:49:43
30501	30488		Notice to quit filed	Notice to quit filed	2010-07-12 00:00:00	2	2017-02-05 14:49:43
30504	30488		Answer filed	Answer of Theresa Caruso

, cclaims, jury demand	2010-07-16 00:00:00	4	2017-02-05 14:49:43
30595	30585		Military affidavit filed	Military Service and Rule 10 Affidavit	2012-08-08 00:00:00	0	2017-02-05 14:49:43
30598	30585		Notice to quit filed	Notice to quit filed	2012-08-14 00:00:00	0	2017-02-05 14:49:43
30786	30778		Suggestion of death filed	Suggestion of Death of Irene Aherne	2010-01-11 00:00:00	0	2017-02-05 14:49:43
31064	31059		Counsel added	Attorney Wilson, Esq., Kenneth C representing Citibank, N.A. successory by merger to as of Fri Sep 02 00:00:00 EDT 2011	2011-09-19 00:00:00	1	2017-02-05 14:49:43
31191	31186		Assent And Waiver Of Notice fi	An Interested Person,James J. Coughlin

Reading, MA , Filed MPC 455 toAssent And Waiver Of Notice, Renunciation, Nomination, Waiver of Sureties

06/16/2014	2014-06-16 00:00:00	0	2017-02-05 14:49:43
31192	31186		Assent And Waiver Of Notice fi	An Interested Person,Joanne Ryan

Reading, MA , Filed MPC 455 toAssent And Waiver Of Notice, Waiver of Sureties

06/16/2014	2014-06-16 00:00:00	0	2017-02-05 14:49:43
31196	31186		UCC filed	Uniform Counsel Certification Form Filed by	2014-06-16 00:00:00	0	2017-02-05 14:49:43
31256	31229		Motion for successive service 	Motion for successive service of trustee summons  denied because moving party failed to appear. Hon. Brian R Merrick

Denied with prejudice	2013-02-26 00:00:00	0	2017-02-05 14:49:43
31309	31298		Counsel added	Attorney Wilson, Esq., Kenneth C representing Citibank, N.A. As successor by merger to Citibank (South Dakota), N.A. as of Thu Jul 28 00:00:00 EDT 2011	2011-07-28 00:00:00	0	2017-02-05 14:49:43
31469	31462		Counsel added	Attorney Wilson, Esq., Kenneth C representing FIA CARD SERVICES NA as of Mon May 16 00:00:00 EDT 2011	2011-05-16 00:00:00	1	2017-02-05 14:49:43
31593	31585		Notice to quit filed	Notice to quit filed	2010-07-12 00:00:00	2	2017-02-05 14:49:43
31818	31811		Military affidavit filed	Military Service and Rule 10 Affidavit	2011-12-01 00:00:00	0	2017-02-05 14:49:43
32189	32175		Counsel added	Attorney Maier, Esq., Frank J representing Commerce Bank & Trust as of Fri Apr 22 00:00:00 EDT 2011	2011-04-22 00:00:00	1	2017-02-05 14:49:43
32224	32210		Military affidavit filed	Military Service and Rule 10 Affidavit	2012-08-15 00:00:00	0	2017-02-05 14:49:43
32227	32210		Military affidavit filed	Military Service and Rule 10 Affidavit	2012-08-22 00:00:00	0	2017-02-05 14:49:43
32282	32275		Counsel added	Attorney Wilson, Esq., Kenneth C representing Citibank, N.A. successory by merger to as of Fri Sep 02 00:00:00 EDT 2011	2011-09-19 00:00:00	1	2017-02-05 14:49:43
32452	32445		Counsel added	Attorney Wilson, Esq., Kenneth C representing ARROW FINANCIAL SERVICES LLC, ASSIGNEE OF FCC NATIONAL BANK as of Mon May 16 00:00:00 EDT 2011	2011-05-16 00:00:00	1	2017-02-05 14:49:43
32561	32551		Military affidavit filed	Military Service and Rule 10 Affidavit	2013-10-03 00:00:00	0	2017-02-05 14:49:43
32831	32818		Counsel added	On this date 02/09/2012 Taylor, Esq., Steven Mark added as Private Counsel for Liberty Mutual Insurance Company	2012-02-09 00:00:00	0	2017-02-05 14:49:43
32888	32877		Counsel added	Attorney Wilson, Esq., Kenneth C representing FIA Card Services, N.A. as of Tue Jan 04 00:00:00 EST 2011	2011-01-04 00:00:00	0	2017-02-05 14:49:43
33269	33259		Notice to quit filed	Notice to quit filed	2010-07-12 00:00:00	2	2017-02-05 14:49:43
33286	33280		Counsel added	Attorney Howard, Esq., Edwin Herbert representing Athol Memorial Hospital as of Thu Dec 09 00:00:00 EST 2010	2010-12-09 00:00:00	0	2017-02-05 14:49:43
33397	33389		Counsel added	Attorney Wilson, Esq., Kenneth C representing Citibank, N.A. successory by merger to as of Fri Sep 02 00:00:00 EDT 2011	2011-09-19 00:00:00	1	2017-02-05 14:49:43
33427	33414		Affidavit in support of motion	Affidavit in support of motion	2012-11-09 00:00:00	0	2017-02-05 14:49:43
33522	33504		Counsel added	Attorney Wilson, Esq., Kenneth C representing WORLDWIDE ASSET PURCHASING, LLC ASSIGNEE OF DIRECT MERCHANTS NATIONAL BANK as of Mon May 16 00:00:00 EDT 2011	2011-05-16 00:00:00	1	2017-02-05 14:49:43
33623	33612		Counsel added	Attorney Wiener, Esq., Stephen A. representing Midland Funding as of Fri Apr 22 00:00:00 EDT 2011	2011-04-22 00:00:00	1	2017-02-05 14:49:43
33776	33758		Counsel added	Attorney Olshan, Esq., Adam J. representing Midland Funding Llc as of 03/18/2011	2011-03-18 00:00:00	2	2017-02-05 14:49:43
33966	33949		Request for continuance	Parties jointly request that case be continued	2011-06-01 00:00:00	0	2017-02-05 14:49:43
34055	34047		Suggestion of bankruptcy filed	Suggestion of bankruptcy of D01  ARLENE E. BELSKY filed (11 U.S.C. 362).	2010-04-05 00:00:00	0	2017-02-05 14:49:43
34065	34060		Counsel added	Attorney Wilson, Esq., Kenneth C representing Citibank, N.A. successory by merger to as of Fri Sep 02 00:00:00 EDT 2011	2011-09-19 00:00:00	1	2017-02-05 14:49:43
34206	34197		Notice to quit filed	Notice to quit filed	2010-07-12 00:00:00	2	2017-02-05 14:49:43
34209	34197		Military affidavit filed	Military Service and Rule 10 Affidavit	2010-07-27 00:00:00	4	2017-02-05 14:49:43
34273	34258		Military affidavit filed	Military Service and Rule 10 Affidavit	2012-08-17 00:00:00	0	2017-02-05 14:49:43
34276	34258		Military affidavit filed	Military Service and Rule 10 Affidavit	2012-08-20 00:00:00	0	2017-02-05 14:49:43
34293	34281		Counsel added	Attorney Sardella, Esq., Todd Michael representing Capital One Bank (U.S.A), N.A. as of 03/22/2011	2011-03-22 00:00:00	2	2017-02-05 14:49:43
34422	34410		Counsel added	Attorney Wilson, Esq., Kenneth C representing ATLANTIC CREDIT & FINANCE INC, ASSIGNEE OF HSBC as of Mon May 16 00:00:00 EDT 2011	2011-05-16 00:00:00	1	2017-02-05 14:49:43
34458	34450		Counsel added	Attorney Wiener, Esq., Stephen A. representing Midland Funding as of Fri Apr 22 00:00:00 EDT 2011	2011-04-22 00:00:00	1	2017-02-05 14:49:43
34511	34504		Counsel added	Attorney King, Esq., Alan Hildreth representing Puleio, Marion as of Sat Sep 17 00:00:00 EDT 2011	2011-09-17 00:00:00	0	2017-02-05 14:49:43
34515	34504		Counsel added	Attorney Winkeller, Esq., Noah A. representing Esposito, James as of 12/09/2011	2011-12-09 00:00:00	3	2017-02-05 14:49:43
34517	34504		Counsel added	On this date 07/03/2012 Kerrins, Esq., Michael Patrick added as Private Counsel for Esposito, James	2012-07-03 00:00:00	4	2017-02-05 14:49:43
34724	34698		Counsel added	Attorney Olshan, Esq., Adam J. representing Capital One Bank (U.S.A.), N.A as of 03/29/2011	2011-03-29 00:00:00	2	2017-02-05 14:49:43
34725	34698		Suggestion of bankruptcy filed	Suggestion of bankruptcy of Robert G Marsan filed (11 U.S.C. 362).	2015-04-09 00:00:00	3	2017-02-05 14:49:43
34891	34883		Counsel added	Attorney Wiener, Esq., Stephen A. representing Discover as of Thu Dec 09 00:00:00 EST 2010	2010-12-09 00:00:00	0	2017-02-05 14:49:43
35034	35026		UCC filed	Uniform Counsel Certification Form Filed by	2010-01-11 00:00:00	0	2017-02-05 14:49:43
35108	35098		Military affidavit filed	Military Service and Rule 10 Affidavit	2014-05-22 00:00:00	0	2017-02-05 14:49:43
35198	35189		Suggestion of bankruptcy filed	Suggestion of bankruptcy of D01  JACKIE M. MALLET filed (11 U.S.C. 362).	2010-04-13 00:00:00	0	2017-02-05 14:49:43
35442	35434		Counsel added	Attorney Wilson, Esq., Kenneth C representing LVNV Funding LLC as of Fri Sep 02 00:00:00 EDT 2011	2011-09-19 00:00:00	1	2017-02-05 14:49:43
35489	35476		Counsel added	Attorney Wilson, Esq., Kenneth C representing Arrow Financial Services LLC As Assignee of GE Money Bank/Peach Direct as of Tue Jan 04 00:00:00 EST 2011	2011-01-04 00:00:00	0	2017-02-05 14:49:43
35496	35476		Motion to compel discovery	Motion to compel discovery Uniform Summary Proc Rule 7[d] Production of Documents allowed Hon. Arthur F Haley III.

	2011-04-14 00:00:00	0	2017-02-05 14:49:43
35501	35476		Counsel added	Attorney Arroyo, Esq., Kimberley M representing Covey, William as of 07/13/2011	2011-07-13 00:00:00	9	2017-02-05 14:49:43
35506	35476		Suggestion of bankruptcy filed	Suggestion of bankruptcy of William Covey filed (11 U.S.C. 362).

	2012-01-23 00:00:00	10	2017-02-05 14:49:43
35569	35556		Counsel added	Attorney Wiener, Esq., Stephen A. representing RAB Performance Recoveries, LLC as of Fri Apr 22 00:00:00 EDT 2011	2011-04-22 00:00:00	1	2017-02-05 14:49:43
35726	35720		Counsel added	Attorney Wiener, Esq., Stephen A. representing Midland Funding LLC as of Mon May 16 00:00:00 EDT 2011	2011-05-16 00:00:00	1	2017-02-05 14:49:43
35847	35841		Counsel added	Attorney Sandlin, Esq., Charlene M. representing Discover Bank as of Fri Sep 30 00:00:00 EDT 2011	2011-09-30 00:00:00	1	2017-02-05 14:49:43
35987	35979		UCC filed	Uniform Counsel Certification Form Filed by	2010-01-11 00:00:00	0	2017-02-05 14:49:43
36006	35995		Suggestion of bankruptcy filed	Suggestion of bankruptcy of Portfolio Recovery Associates, LLC filed (11 U.S.C. 362).
Automatic Stay is now in effect.	2014-11-20 00:00:00	4	2017-02-05 14:49:43
36240	36225		Suggestion of bankruptcy filed	Suggestion of bankruptcy of D01  KATHY R. JACKSON filed (11 U.S.C. 362).	2010-06-10 00:00:00	0	2017-02-05 14:49:43
36293	36265		Request for continuance	Parties jointly request that case be continued generally. No ability at this time.	2011-06-14 00:00:00	0	2017-02-05 14:49:43
36340	36325		Military affidavit filed	Military Service and Rule 10 Affidavit for both Defts	2013-10-09 00:00:00	0	2017-02-05 14:49:43
36365	36352		Counsel withdrawal	On this date 07/16/2012 Sardella, Esq., Todd Michael dismissed/withdrawn as Private Counsel for Capital One Bank (USA), N.A.	2012-07-26 00:00:00	0	2017-02-05 14:49:43
36366	36352		Counsel added	On this date 07/26/2012 Solomon, Esq., Julie B added as Private Counsel for Capital One Bank (USA), N.A.	2012-07-26 00:00:00	0	2017-02-05 14:49:43
36389	36380		Notice to quit filed	Notice to quit filed	2010-07-12 00:00:00	2	2017-02-05 14:49:43
36392	36380		Military affidavit filed	Military Service and Rule 10 Affidavit	2010-07-26 00:00:00	4	2017-02-05 14:49:43
36511	36505		Counsel added	Attorney Milgram, Esq., Jack P representing Luo, Wei Bin as of Sat Sep 17 00:00:00 EDT 2011	2011-09-17 00:00:00	0	2017-02-05 14:49:43
36529	36519		Counsel added	Attorney Wilson, Esq., Kenneth C representing Citibank (South Dakota) as of Fri Apr 22 00:00:00 EDT 2011	2011-04-22 00:00:00	1	2017-02-05 14:49:43
36553	36540		Military affidavit filed	Military Service and Rule 10 Affidavit	2014-05-22 00:00:00	0	2017-02-05 14:49:43
36625	36600		Suggestion of bankruptcy filed	Suggestion of bankruptcy of [Party] filed (11 U.S.C. 362).	2011-04-28 00:00:00	2	2017-02-05 14:49:43
36906	36897		Counsel added	Attorney Wiener, Esq., Stephen A. representing Discover bank as of Wed Aug 03 00:00:00 EDT 2011	2011-08-03 00:00:00	0	2017-02-05 14:49:43
37066	37061		Counsel added	Attorney Kreppel, Esq., Gary Howard representing EQUABLE ASCENT FINANCIAL LLC F/K/A HILCO RECEIVABLES ll as of Mon May 16 00:00:00 EDT 2011	2011-05-16 00:00:00	1	2017-02-05 14:49:43
37263	37245		Suggestion of bankruptcy filed	Suggestion of bankruptcy of Terry R Wehner filed (11 U.S.C. 362).
	2011-11-22 00:00:00	0	2017-02-05 14:49:43
37534	37484		Motion to compel discovery	Motion  to compel production of documents allowed Hon. Joseph I Macy

30 days to comply-- court room #4 start at 9:36-- COPIES TO PARTIES	2013-05-07 00:00:00	0	2017-02-05 14:49:43
37585	37579		Counsel added	Attorney Omar, Esq., Richard John representing Harvest Credit Management as of Tue Apr 19 00:00:00 EDT 2011	2011-04-19 00:00:00	1	2017-02-05 14:49:43
37599	37579		Request for continuance	Parties jointly request that case be continued while payment is being made. $50 per month beginning 08/01/15	2015-06-29 00:00:00	0	2017-02-05 14:49:43
37636	37602		Motion to assess damages	On 7/22/10, Motion to assess damages and attorneys fees heard ( Yee, Hon. Paul M. ) (Tape 477 from 10:33 to 10:46 ).	2010-07-23 00:00:00	0	2017-02-05 14:49:43
37704	37682		Motion to compel discovery	Motion to compel discovery (Mass.R.Civ.P. 37[a]) allowed.
Compliance due by 8/4/10 @ 4 PM	2010-07-20 00:00:00	0	2017-02-05 14:49:43
37710	37682		Suggestion of bankruptcy filed	Suggestion of bankruptcy of James M. Burke III filed (11 U.S.C. 362).	2010-09-02 00:00:00	1	2017-02-05 14:49:43
37890	37882		Notice to quit filed	Notice to quit filed	2010-07-12 00:00:00	2	2017-02-05 14:49:43
38198	38190		Counsel added	Attorney Kreppel, Esq., Gary Howard representing FIA CARD SERVICES, NA as of Mon May 16 00:00:00 EDT 2011	2011-05-16 00:00:00	1	2017-02-05 14:49:43
38223	38214		Release of All Demands and Ass	Release of All Demands and Assent to Account	2012-07-30 00:00:00	0	2017-02-05 14:49:43
38296	38283		Counsel added	Attorney Chopelas, Esq., Thomas representing Robert J Tenaglia, Jr. D/B/A TNT Hotrods as of Thu Jul 28 00:00:00 EDT 2011	2011-07-28 00:00:00	0	2017-02-05 14:49:43
38384	38353		Counsel added	Attorney Greenberg, Esq., Andrew Mark representing Christine Cedrone Logan & Assoc. as of 10/18/2011	2011-10-18 00:00:00	1	2017-02-05 14:49:43
38437	38432		Counsel added	Attorney Wilson, Esq., Kenneth C representing FIA Card Services, N.A. as of Thu Sep 22 00:00:00 EDT 2011	2011-09-22 00:00:00	1	2017-02-05 14:49:43
38482	38465		Counsel added	On this date 04/17/2012 Wilson, Esq., Kenneth C added as Private Counsel for Advantage Assets II, Inc. As Assignee of Citibank  (South Dakota), N.A.	2012-04-17 00:00:00	0	2017-02-05 14:49:43
38525	38514		Military affidavit filed	Military Service and Rule 10 Affidavit	2013-10-09 00:00:00	0	2017-02-05 14:49:43
38542	38536		Counsel added	Attorney Sandlin, Esq., Charlene M. representing LVNV Funding, LLC as of Fri Sep 30 00:00:00 EDT 2011	2011-09-30 00:00:00	1	2017-02-05 14:49:43
38561	38551		Counsel added	Attorney Sardella, Esq., Todd Michael representing Capital One Bank (USA), N.A. as of Tue Oct 18 00:00:00 EDT 2011	2011-10-18 00:00:00	1	2017-02-05 14:49:43
38698	38682		Counsel added	Attorney Wiener, Esq., Stephen A. representing Ge money bank as of Wed Aug 03 00:00:00 EDT 2011	2011-08-03 00:00:00	0	2017-02-05 14:49:43
38705	38682		Appearance filed	Misc Entry:  Substitute counsel appearance filed for plaintiff bu Attorney Justin L. Fitzgerald for today only.	2012-01-26 00:00:00	0	2017-02-05 14:49:43
38777	38742		Request for continuance	Parties jointly request that case be continued while payment is being made at rate of 100.00 per month.
agreement signed by defendant, Melissa Phillips	2011-09-19 00:00:00	0	2017-02-05 14:49:43
38786	38742		Change of address	Change of Address for defendant, Melissa C. Phillips from 91r Holman Street, Attleboro, MA to PO Box 1145, Lakeville, MA   023447	2012-03-29 00:00:00	0	2017-02-05 14:49:43
38832	38827		Counsel added	Attorney Kreppel, Esq., Gary Howard representing Capital One Bank as of Tue Apr 19 00:00:00 EDT 2011	2011-04-19 00:00:00	1	2017-02-05 14:49:43
38937	38929		UCC filed	Uniform Counsel Certification Form Filed by	2010-01-11 00:00:00	0	2017-02-05 14:49:43
39075	39060		Suggestion of bankruptcy filed	Suggestion of banruptcy of Lucille Obenchoin filed (11 U.S.C. 362).	2014-09-15 00:00:00	4	2017-02-05 14:49:43
39101	39091		Counsel added	Attorney Kreppel, Esq., Gary Howard representing CAPITAL ONE BANK  (USA)  NA as of Mon May 16 00:00:00 EDT 2011	2011-05-16 00:00:00	1	2017-02-05 14:49:43
39150	39138		Counsel added	Attorney Wilson, Esq., Kenneth C representing Avalonbay Communities, Inc./Avalon Danvers as of Fri Dec 10 00:00:00 EST 2010	2010-12-10 00:00:00	0	2017-02-05 14:49:43
39200	39189		Suggestion of bankruptcy filed	Suggestion of banruptcy of Robert L Newell filed (11 U.S.C. 362).	2014-05-16 00:00:00	3	2017-02-05 14:49:43
39285	39264		Suggestion of bankruptcy filed	Suggestion of bankruptcy of Liz Jenkins filed (11 U.S.C. 362).	2014-05-28 00:00:00	0	2017-02-05 14:49:43
39483	39470		Counsel withdrawal	On this date 07/16/2012 Sardella, Esq., Todd Michael dismissed/withdrawn as Private Counsel for Capital One Bank (USA), N.A.	2012-07-26 00:00:00	0	2017-02-05 14:49:43
39484	39470		Counsel added	On this date 07/26/2012 Solomon, Esq., Julie B added as Private Counsel for Capital One Bank (USA), N.A.	2012-07-26 00:00:00	0	2017-02-05 14:49:43
39524	39516		Counsel added	Attorney Cohen, Esq., Jeremy Moss representing National Credit Adjusters, LLC as of Wed Oct 19 00:00:00 EDT 2011	2011-10-19 00:00:00	1	2017-02-05 14:49:43
39600	39559		Motion to compel discovery	Motion to compel discovery Uniform Summary Proc Rule 7[d] Allowed by agreement, limited ot five years allowed Hon. Michael Fabbri

See Order for copies of medical records re: Plaintiff 8/2008 to present	2015-07-14 00:00:00	0	2017-02-05 14:49:43
39778	39769		Counsel added	Attorney Kreppel, Esq., Gary Howard representing EQUABLE ASCENT FINANCIAL, LLC F/K/A HILCO RECEIVABLES LLC as of Tue May 17 00:00:00 EDT 2011	2011-05-17 00:00:00	1	2017-02-05 14:49:43
39857	39847		Notice to quit filed	Notice to quit filed	2010-07-12 00:00:00	2	2017-02-05 14:49:43
40185	40172		Counsel added	Attorney Pino, Esq., Paul Gerard representing Progressive Insurance as of 03/17/2011	2011-03-17 00:00:00	2	2017-02-05 14:49:43
40218	40209		Counsel added	Attorney Rhein, Esq., David representing Federal National Mortgage Association as of Mon Aug 08 00:00:00 EDT 2011	2011-08-08 00:00:00	0	2017-02-05 14:49:43
40239	40226		Notice to quit filed	Notice to quit filed	2010-06-09 00:00:00	0	2017-02-05 14:49:43
40240	40226		Answer filed	Answer of Fitzroy Lynch

& Counterclaim and Jury Demand	2010-06-14 00:00:00	0	2017-02-05 14:49:43
40301	40294		UCC filed	Uniform Counsel Certification Form Filed by	2010-01-11 00:00:00	0	2017-02-05 14:49:43
40322	40310		Counsel added	Attorney Wilson, Esq., Kenneth C representing Citibank n.a. as of Wed Aug 03 00:00:00 EDT 2011	2011-08-03 00:00:00	0	2017-02-05 14:49:43
40460	40436		Counsel added	Attorney Dial, Jr., Esq., Edward C. representing Cavalry Spv I, Llc As Assignee Of Hilco Receivable As Assignee of Bank Of America County Of Westchester as of 12/15/2011	2011-12-15 00:00:00	0	2017-02-05 14:49:43
40508	40498		Counsel added	Attorney Kreppel, Esq., Gary Howard representing Capital One Bank as of Tue Apr 19 00:00:00 EDT 2011	2011-04-19 00:00:00	1	2017-02-05 14:49:43
40898	40890		UCC filed	Uniform Counsel Certification Form Filed by	2010-01-11 00:00:00	0	2017-02-05 14:49:43
40914	40908		Counsel added	Attorney Weil, Esq., Steven David representing Forest  City Residential Management, Inc., agent for owner FC 100 Landsdowne Street, LLC as of Mon May 16 00:00:00 EDT 2011	2011-05-16 00:00:00	1	2017-02-05 14:49:43
41049	41039		Counsel added	Attorney Dial, Jr., Esq., Edward C. representing Cavalry SPV I, LLC As Assignee of FIA Card Services, NA as of Tue Jul 19 00:00:00 EDT 2011	2011-07-19 00:00:00	0	2017-02-05 14:49:43
41087	41061		Request for continuance	Parties jointly request that case be continued while payment is being made at rate of $100.00 per month.

commencing 2/1/14 due on or before first of each month; defendant to send to plaintiff's attorney. Allowed by Judge	2014-11-14 00:00:00	0	2017-02-05 14:49:43
41354	41346		Counsel added	Attorney Carter, Esq., Kate Moran representing Board of Directors of the Residences at Stone Gables Condominium Association, Inc. as of Fri Jul 29 00:00:00 EDT 2011	2011-07-29 00:00:00	0	2017-02-05 14:49:43
41406	41394		Notice to quit filed	Notice to quit filed	2010-07-12 00:00:00	2	2017-02-05 14:49:43
41409	41394		Military affidavit filed	Military Service and Rule 10 Affidavit	2010-07-26 00:00:00	4	2017-02-05 14:49:43
41421	41394		Military affidavit filed	Military Service and Rule 10 Affidavit	2010-08-30 00:00:00	10	2017-02-05 14:49:43
41540	41532		Counsel added	Attorney Osol, Esq., Robert representing Harvard Funding, , LLC As Assignee of Chase as of Wed Jul 20 00:00:00 EDT 2011	2011-08-03 00:00:00	0	2017-02-05 14:49:43
41566	41551		Counsel added	Attorney Kreppel, Esq., Gary Howard representing Capital One Bank as of Tue Apr 19 00:00:00 EDT 2011	2011-04-19 00:00:00	1	2017-02-05 14:49:43
41826	41819		UCC filed	Uniform Counsel Certification Form Filed by	2013-01-02 00:00:00	0	2017-02-05 14:49:43
42669	42657		Counsel added	Attorney Brugnoli, III, Esq., Carl A. representing Eastern Propane and Oil as of Thu Jan 06 00:00:00 EST 2011	2011-01-07 00:00:00	0	2017-02-05 14:49:43
42745	42710		Counsel added	On this date 01/12/2012 Gillietti, Esq., Damien Daniel added as Private Counsel for Joseph Antonellis D/B/A Mirage Properties	2012-01-12 00:00:00	5	2017-02-05 14:49:43
42764	42755		UCC filed	Uniform Counsel Certification Form Filed by	2010-01-12 00:00:00	0	2017-02-05 14:49:43
42841	42828		Counsel withdrawal	On this date 07/16/2012 Sardella, Esq., Todd Michael dismissed/withdrawn as Private Counsel for Capital One Bank (USA), N.A.	2012-07-26 00:00:00	0	2017-02-05 14:49:43
42842	42828		Counsel added	On this date 07/26/2012 Solomon, Esq., Julie B added as Private Counsel for Capital One Bank (USA), N.A.	2012-07-26 00:00:00	0	2017-02-05 14:49:43
42883	42874		Counsel added	Attorney Kreppel, Esq., Gary Howard representing Capital One Bank as of Tue Apr 19 00:00:00 EDT 2011	2011-04-19 00:00:00	1	2017-02-05 14:49:43
42893	42874		Suggestion of bankruptcy filed	Suggestion of bankruptcy of Cheryl Choruzek A/K/A Cheryl M Choruzek filed (11 U.S.C. 362).
	2012-03-26 00:00:00	4	2017-02-05 14:49:43
43012	43004		Notice to quit filed	Notice to quit filed	2010-07-12 00:00:00	2	2017-02-05 14:49:43
43015	43004		Military affidavit filed	Military Service and Rule 10 Affidavit	2010-07-26 00:00:00	4	2017-02-05 14:49:43
43120	43110		Military affidavit filed	Military Service and Rule 10 Affidavit	2014-05-22 00:00:00	0	2017-02-05 14:49:43
43135	43126		Notice to quit filed	Notice to quit filed	2010-06-09 00:00:00	0	2017-02-05 14:49:43
43137	43126		Military affidavit filed	Military Service and Rule 10 Affidavit	2010-06-24 00:00:00	0	2017-02-05 14:49:43
43156	43142		Affidavit in support of motion	Affidavit In Support Of Motion	2014-10-16 00:00:00	0	2017-02-05 14:49:43
43245	43228		Suggestion of bankruptcy filed	Suggestion of bankruptcy of David Hogan D/B/A American Climate Control filed (11 U.S.C. 362).	2014-02-04 00:00:00	1	2017-02-05 14:49:43
43277	43266		Counsel added	Attorney Wilson, Esq., Kenneth C representing LVNV Funding, LLC As Assignee of Citibank/Sears Gold Mastercard as of Wed Aug 03 00:00:00 EDT 2011	2011-09-01 00:00:00	0	2017-02-05 14:49:43
43374	43363		Counsel added	Attorney Wiener, Esq., Stephen A. representing Midland Funding, LLC As Assignee of Citibank as of Tue Sep 06 00:00:00 EDT 2011	2011-09-06 00:00:00	1	2017-02-05 14:49:43
43488	43465		Counsel added	Attorney Dial, Jr., Esq., Edward C. representing Cavalry Spv I, Llc As Assignee of Hsbc Bank Nevada, N.A. as of 11/14/2011	2011-12-15 00:00:00	0	2017-02-05 14:49:43
43555	43542		Military affidavit filed	Military Service and Rule 10 Affidavit	2013-10-03 00:00:00	0	2017-02-05 14:49:43
43657	43646		Counsel added	Attorney Palmer, Esq., Thomas M. representing NSTAR  Electric as of Wed Oct 05 00:00:00 EDT 2011	2011-10-05 00:00:00	1	2017-02-05 14:49:43
43799	43791		Counsel added	Attorney Kreppel, Esq., Gary Howard representing Capital One Bank as of Tue Apr 19 00:00:00 EDT 2011	2011-04-19 00:00:00	1	2017-02-05 14:49:43
43812	43791		Suggestion of bankruptcy filed	Suggestion of bankruptcy of William A Harry D/B/A William A. Harry Investigations filed (11 U.S.C. 362).
	2012-08-23 00:00:00	4	2017-02-05 14:49:43
43825	43818		Counsel added	Attorney Burgess, Esq., Michael J. representing Wang, Yenking as of Mon May 16 00:00:00 EDT 2011	2011-05-16 00:00:00	1	2017-02-05 14:49:43
43930	43921		Counsel added	Attorney Carter, Esq., Kate Moran representing Board of Directors of the Residences at Stone Gables Condominium Association, Inc. as of Fri Jul 29 00:00:00 EDT 2011	2011-07-29 00:00:00	0	2017-02-05 14:49:43
43959	43948		Military affidavit filed	Military Service and Rule 10 Affidavit	2014-05-22 00:00:00	0	2017-02-05 14:49:43
44062	44050		Counsel added	Attorney Solomon, Esq., Julie B representing FIA Card Services, NA as of Tue Jul 19 00:00:00 EDT 2011	2011-07-19 00:00:00	0	2017-02-05 14:49:43
44230	44195		Request for continuance	Parties jointly request that case be continued.	2014-04-28 00:00:00	0	2017-02-05 14:49:43
44256	44195		Request for continuance	Parties jointly request that case be continued while payment is being made at rate of $20.00 per month.
beginning on 3-15-15 & every 15th thereafter	2015-02-23 00:00:00	0	2017-02-05 14:49:43
44259	44195		Request for continuance	Parties jointly request that case be continued----no ability to pay	2015-08-10 00:00:00	0	2017-02-05 14:49:43
44294	44286		Suggestion of bankruptcy filed	Suggestion of bankruptcy of D01  JACQUELYN A. LARCENAIRE filed (11 U.S.C. 362).	2010-05-04 00:00:00	0	2017-02-05 14:49:43
44311	44300		Counsel added	Attorney Wilson, Esq., Kenneth C representing Capital One Bank (USA) N.A. as of Wed Oct 05 00:00:00 EDT 2011	2011-10-05 00:00:00	1	2017-02-05 14:49:43
44336	44324		Military affidavit filed	Military Service and Rule 10 Affidavit	2014-05-22 00:00:00	0	2017-02-05 14:49:43
44362	44352		Military affidavit filed	Military Service and Rule 10 Affidavit	2012-08-03 00:00:00	0	2017-02-05 14:49:43
44372	44366		Counsel added	Attorney Wiener, Esq., Stephen A. representing Discover as of Tue Apr 19 00:00:00 EDT 2011	2011-04-19 00:00:00	1	2017-02-05 14:49:43
44394	44383		Notice to quit filed	Notice to quit filed	2010-07-12 00:00:00	2	2017-02-05 14:49:43
44451	44438		Suggestion of bankruptcy filed	Suggestion of banruptcy of Caroline E Byrne filed (11 U.S.C. 362).
Bankruptch case number is 12-18855.	2012-12-03 00:00:00	1	2017-02-05 14:49:43
44466	44453		Counsel added	Attorney Wiener, Esq., Stephen A. representing Midland Funding, LLC As Assignee of Citibank USA, N.A. as of 09/06/2011	2011-09-06 00:00:00	5	2017-02-05 14:49:43
44555	44543		Suggestion of bankruptcy filed	Suggestion of bankruptcy of Kayla Cooper filed (11 U.S.C. 362).

Applies To: Cooper, Kayla (Defendant)	2012-12-26 00:00:00	6	2017-02-05 14:49:43
44668	44641		Request for continuance	Parties jointly request that case be continued while payment is being made at rate of $25.00 per month.
beginning 5-15-14 and every 15th thereafter	2014-04-14 00:00:00	0	2017-02-05 14:49:43
44930	44916		Counsel added	Attorney Wilson, Esq., Kenneth C representing FIA Card Services, NA as of Wed Oct 05 00:00:00 EDT 2011	2011-10-05 00:00:00	1	2017-02-05 14:49:43
44967	44962		Counsel added	Attorney Wiener, Esq., Stephen A. representing Discover as of Tue Apr 19 00:00:00 EDT 2011	2011-04-19 00:00:00	1	2017-02-05 14:49:43
45033	45005		Request for continuance	Parties jointly request that case be continued while payment is being made at rate of $25.00 per month.
beg. 1/15/15	2014-12-01 00:00:00	0	2017-02-05 14:49:43
45062	45057		Counsel added	Attorney Wiener, Esq., Stephen A. representing Midland Funding LLC as of Mon Oct 17 00:00:00 EDT 2011	2011-10-17 00:00:00	1	2017-02-05 14:49:43
45069	45057		Suggestion of bankruptcy filed	Suggestion of bankruptcy of Michael Bennett filed (11 U.S.C. 362).

	2012-06-08 00:00:00	4	2017-02-05 14:49:43
45110	45102		UCC filed	Uniform Counsel Certification Form Filed by	2013-01-02 00:00:00	0	2017-02-05 14:49:43
45261	45255		Counsel added	Attorney Wiener, Esq., Stephen A. representing Midland Funding as of Tue Apr 19 00:00:00 EDT 2011	2011-04-19 00:00:00	1	2017-02-05 14:49:43
45300	45283		Suggestion of bankruptcy filed	Suggestion of bankruptcy of Helen Carmara filed (11 U.S.C. 362).	2013-03-27 00:00:00	2	2017-02-05 14:49:43
45442	45431		Counsel added	Attorney Wiener, Esq., Stephen A. representing Midland Funding, LLC As Assignee of Bank of America as of Tue Sep 06 00:00:00 EDT 2011	2011-09-06 00:00:00	1	2017-02-05 14:49:43
45542	45526		Counsel added	Attorney Ferraro, Esq., James K representing Vera, Tracy as of Mon May 16 00:00:00 EDT 2011	2011-05-16 00:00:00	1	2017-02-05 14:49:43
45585	45574		Counsel added	Attorney Reczek, Esq., Erin M. representing GE Money Bank as of Tue Dec 14 00:00:00 EST 2010	2010-12-14 00:00:00	0	2017-02-05 14:49:43
45663	45652		Notice to quit filed	Notice to quit filed	2010-06-07 00:00:00	0	2017-02-05 14:49:43
45712	45699		Counsel added	Attorney Aylward, Esq., Brian K representing Merriman Investments LLC As Assignee of CACV of Colorado LLC as of Fri Oct 07 00:00:00 EDT 2011	2011-10-07 00:00:00	1	2017-02-05 14:49:43
45921	45909		Counsel added	Attorney Kreppel, Esq., Gary Howard representing Equable Ascent Financial LLC Formerly known as Hilco Receivables LLC as of Tue Dec 14 00:00:00 EST 2010	2010-12-14 00:00:00	0	2017-02-05 14:49:43
45944	45936		Counsel added	Attorney Kreppel, Esq., Gary Howard representing Capital One Bank as of Thu Jan 06 00:00:00 EST 2011	2011-01-06 00:00:00	0	2017-02-05 14:49:43
45995	45969		Change of address	change of address for defendant provided by plaintiff	2014-03-11 00:00:00	0	2017-02-05 14:49:43
46272	46261		Counsel added	Attorney Reczek, Esq., Erin M. representing American Express Bank, FSB as of Mon Apr 25 00:00:00 EDT 2011	2011-04-25 00:00:00	1	2017-02-05 14:49:43
46329	46301		Request for continuance	Parties jointly request that case be continued.	2014-07-21 00:00:00	0	2017-02-05 14:49:43
46418	46402		Counsel added	Attorney Wiener, Esq., Stephen A. representing Midland Funding, LLC As Assignee of HSBC Bank Nevada N.A. as of 09/06/2011	2011-09-06 00:00:00	6	2017-02-05 14:49:43
46425	46402		Counsel added	On this date 06/08/2012 Pitnof, Esq., Nathaniel D added as Private Counsel for Njoroge, Kenneth	2012-06-08 00:00:00	10	2017-02-05 14:49:43
46476	46465		Military affidavit filed	Military Service and Rule 10 Affidavit	2012-08-13 00:00:00	0	2017-02-05 14:49:43
46552	46542		UCC filed	Uniform Counsel Certification Form Filed by	2013-01-03 00:00:00	0	2017-02-05 14:49:43
46630	46618		Counsel added	Attorney Kreppel, Esq., Gary Howard representing Equable Ascent Financial LLC Formerly known as Hilco Receivables LLC as of Tue Dec 14 00:00:00 EST 2010	2010-12-14 00:00:00	0	2017-02-05 14:49:43
46640	46618		Suggestion of bankruptcy filed	Suggestion of bankruptcy of David J Snyder A/K/A David J Snyder filed (11 U.S.C. 362).	2012-12-21 00:00:00	8	2017-02-05 14:49:43
46706	46699		Counsel added	Attorney Gallagher, Esq., John Joseph representing New England Building Materials, LLC as of Thu Oct 06 00:00:00 EDT 2011	2011-10-06 00:00:00	1	2017-02-05 14:49:43
46823	46816		Counsel added	Attorney Alford, Esq., Harvey representing Belmont Housing Authority as of Mon May 16 00:00:00 EDT 2011	2011-05-16 00:00:00	1	2017-02-05 14:49:43
46937	46930		Counsel added	Attorney Kreppel, Esq., Gary Howard representing Capital One Bank (USA), NA as of Thu Sep 29 00:00:00 EDT 2011	2011-09-29 00:00:00	1	2017-02-05 14:49:43
46962	46955		Notice of claim	Notice of Claim	2011-08-22 00:00:00	0	2017-02-05 14:49:43
46969	46964		Counsel added	Attorney Wiener, Esq., Stephen A. representing FIA Card Services, N.A. as of Mon Oct 17 00:00:00 EDT 2011	2011-10-17 00:00:00	1	2017-02-05 14:49:43
47208	47196		Counsel added	Attorney Kreppel, Esq., Gary Howard representing Equable Ascent Financial LLC Formerly known as Hilco Receivables LLC as of Tue Dec 14 00:00:00 EST 2010	2010-12-14 00:00:00	0	2017-02-05 14:49:43
47273	47264		Counsel added	Attorney Sardella, Esq., Todd Michael representing Capital One Bank (USA) N.A. as of Thu Oct 06 00:00:00 EDT 2011	2011-10-06 00:00:00	1	2017-02-05 14:49:43
47408	47386		Suggestion of bankruptcy filed	Suggestion of bankruptcy of D02  GUILLERMO VALENCIA filed 5/10/11 (11 U.S.C. 362).	2011-05-11 00:00:00	0	2017-02-05 14:49:43
47520	47510		Counsel added	Attorney Sardella, Esq., Todd Michael representing Capital One Bank as of Mon Apr 25 00:00:00 EDT 2011	2011-04-25 00:00:00	1	2017-02-05 14:49:43
47606	47568		Change of address	Change of address for defendant	2011-11-25 00:00:00	0	2017-02-05 14:49:43
47657	47649		Counsel added	Attorney Murray, Esq., Robert Philip representing George J. Krain and Marilyn L. Krain as of Mon May 16 00:00:00 EDT 2011	2011-05-16 00:00:00	1	2017-02-05 14:49:43
47714	47676		Military affidavit filed	Military Service and Rule 10 Affidavit	2010-09-07 00:00:00	7	2017-02-05 14:49:43
47961	47946		Counsel added	Attorney Wiener, Esq., Stephen A. representing Discover Bank as of Wed Sep 07 00:00:00 EDT 2011	2011-09-07 00:00:00	1	2017-02-05 14:49:43
47992	47980		Counsel added	Attorney Kreppel, Esq., Gary Howard representing Equable Ascent Financial LLC Formerly known as Hilco Receivables LLC as of Tue Dec 14 00:00:00 EST 2010	2010-12-14 00:00:00	0	2017-02-05 14:49:43
48181	48158		Suggestion of bankruptcy filed	Suggestion of bankruptcy of Yaritza Gonzalez filed (11 U.S.C. 362).
bankruptcy case no. 14-30883	2014-10-27 00:00:00	8	2017-02-05 14:49:43
48336	48324		Counsel added	Attorney Wiener, Esq., Stephen A. representing FIA Card Service as of Tue Dec 14 00:00:00 EST 2010	2010-12-14 00:00:00	0	2017-02-05 14:49:43
48357	48348		Counsel added	Attorney Sardella, Esq., Todd Michael representing FIA Card Services, N.A. as of Thu Oct 06 00:00:00 EDT 2011	2011-10-06 00:00:00	1	2017-02-05 14:49:43
48375	48367		Notice to quit filed	Notice to quit filed	2011-12-14 00:00:00	0	2017-02-05 14:49:43
48407	48394		Counsel added	On this date 07/26/2012 Solomon, Esq., Julie B added as Private Counsel for Capital One Bank (USA), N.A.	2012-07-26 00:00:00	0	2017-02-05 14:49:43
48408	48394		Counsel withdrawal	On this date 07/16/2012 Sardella, Esq., Todd Michael dismissed/withdrawn as Private Counsel for Capital One Bank (USA), N.A.	2012-07-26 00:00:00	0	2017-02-05 14:49:43
48453	48446		Counsel added	Attorney Wiener, Esq., Stephen A. representing Midland Funding LLC As Assignee of Chase Bank USA NA as of Mon Oct 17 00:00:00 EDT 2011	2011-10-17 00:00:00	1	2017-02-05 14:49:43
48585	48575		Counsel added	Attorney Ott, Esq., John Weems representing Security Credit Services, LLC as of Wed Sep 07 00:00:00 EDT 2011	2011-09-07 00:00:00	1	2017-02-05 14:49:43
48676	48666		Counsel added	Attorney Reczek, Esq., Erin M. representing General Electric Capital Corporation D/B/A G E Money Bank as of Fri Dec 17 00:00:00 EST 2010	2010-12-17 00:00:00	0	2017-02-05 14:49:43
48698	48689		Suggestion of bankruptcy filed	6/6/11  Suggestion of bankruptcy of D01  RUSH BLANKENSHIP filed (11 U.S.C. 362).  Bankruptcy Case No:  11 -30939.	2011-06-16 00:00:00	0	2017-02-05 14:49:43
48751	48734		Suggestion of bankruptcy filed	Suggestion of bankruptcy of Bethany Gomes filed (11 U.S.C. 362).	2013-11-22 00:00:00	5	2017-02-05 14:49:43
48876	48863		Military affidavit filed	Military Service and Rule 10 Affidavit	2010-01-28 00:00:00	0	2017-02-05 14:49:43
48919	48908		UCC filed	Uniform Counsel Certification Form Filed by	2011-07-15 00:00:00	0	2017-02-05 14:49:43
48984	48972		Counsel added	Attorney Cariglia, Esq., Joseph J representing Rocheleau, Carolyn L as of Wed Sep 07 00:00:00 EDT 2011	2011-09-07 00:00:00	1	2017-02-05 14:49:43
48993	48972		Counsel added	On this date 01/25/2012 Simonelli, Esq., Patrice Leona added as Private Counsel for Berry, Ryan M	2012-01-25 00:00:00	8	2017-02-05 14:49:43
49000	48972		Counsel withdrawal	On this date 08/17/2012 Cariglia, Esq., Joseph J dismissed/withdrawn as Private Counsel for Rocheleau, Carolyn L	2012-08-17 00:00:00	15	2017-02-05 14:49:43
49001	48972		Counsel added	On this date 08/17/2012 Gentile, Esq., Cherele L. added as Private Counsel for Rocheleau, Carolyn L	2012-08-17 00:00:00	16	2017-02-05 14:49:43
49002	48972		Counsel added	On this date 08/17/2012 Babigian, Esq., Christopher added as Private Counsel for Rocheleau, Carolyn L	2012-08-17 00:00:00	17	2017-02-05 14:49:43
49046	49034		Counsel added	Attorney Reczek, Esq., Erin M. representing Chase Bank as of Fri Dec 17 00:00:00 EST 2010	2010-12-17 00:00:00	0	2017-02-05 14:49:43
49108	49101		Counsel added	Attorney Kreppel, Esq., Gary Howard representing Capital One Bank (USA), N. A. as of Thu Jan 06 00:00:00 EST 2011	2011-01-07 00:00:00	0	2017-02-05 14:49:43
49368	49358		Notice to quit filed	Notice to quit filed	2010-06-09 00:00:00	0	2017-02-05 14:49:43
49389	49377		Counsel added	Attorney Wilson, Esq., Kenneth C representing LVNV Funding, LLC As Assignee of HSBC Bank Nevada National Association as of Fri Dec 17 00:00:00 EST 2010	2010-12-17 00:00:00	0	2017-02-05 14:49:43
49440	49425		Counsel added	On this date 05/03/2012 Sokol, Esq., Julius L. added as Private Counsel for Sokol, Julius	2012-06-01 00:00:00	5	2017-02-05 14:49:43
49680	49659		Suggestion of bankruptcy filed	Suggestion of banruptcy of G. Scott Griffith filed (11 U.S.C. 362).
	2012-06-29 00:00:00	7	2017-02-05 14:49:43
49681	49659		Suggestion of bankruptcy filed	Suggestion of banruptcy of Deborah F Griffith filed (11 U.S.C. 362).
	2012-06-29 00:00:00	8	2017-02-05 14:49:43
49711	49701		Counsel added	Attorney Wilson, Esq., Kenneth C representing Midland Funding LLC assignee of Citi Bank as of Thu Jul 21 00:00:00 EDT 2011	2011-07-21 00:00:00	0	2017-02-05 14:49:43
49765	49746		Request for continuance	Parties jointly request that case be continued while payment is being made.	2015-08-04 00:00:00	0	2017-02-05 14:49:43
49796	49770		Appearance filed	appearance for plff filed 7-21-11	2011-07-21 00:00:00	0	2017-02-05 14:49:43
49799	49770		Appearance filed	appearance as substitute counsel for plff filed 7-22-11	2011-08-01 00:00:00	0	2017-02-05 14:49:43
49807	49770		Appearance filed	appearance as substitute counsel for plff filed 10-7-11	2011-10-11 00:00:00	0	2017-02-05 14:49:43
49821	49770		Appearance filed	Misc Entry:  appearance as substitute counsel for plff filed 3-30-12	2012-04-09 00:00:00	32	2017-02-05 14:49:43
49843	49836		UCC filed	Uniform Counsel Certification Form Filed by	2013-01-03 00:00:00	0	2017-02-05 14:49:43
49937	49924		Counsel added	Attorney Cariglia, Esq., Joseph J representing Joslin, Tara L as of Wed Sep 07 00:00:00 EDT 2011	2011-09-07 00:00:00	1	2017-02-05 14:49:43
50049	50041		Counsel added	Attorney Vanaria, Esq., Alan James representing Precision Recovery Analytics, Inc. Formerly known as Colllins Financial Services, Inc. as of Fri Dec 17 00:00:00 EST 2010	2010-12-17 00:00:00	0	2017-02-05 14:49:43
50172	50167		Counsel added	Attorney Bolden, Esq., Bryan C representing Liberty Mutual Insurance Company as of Wed Oct 19 00:00:00 EDT 2011	2011-10-19 00:00:00	1	2017-02-05 14:49:43
50235	50223		Military affidavit filed	Military Service and Rule 10 Affidavit	2011-12-30 00:00:00	0	2017-02-05 14:49:43
50236	50223		Notice to quit filed	Notice to quit filed	2011-12-30 00:00:00	0	2017-02-05 14:49:43
50284	50281		UCC filed	Uniform Counsel Certification Form Filed by	2011-06-27 00:00:00	0	2017-02-05 14:49:43
50426	50408		Suggestion of bankruptcy filed	Suggestion of bankruptcy of Robin L Miles filed (11 U.S.C. 362).
Docket #13-10756 on 02/11/2013	2013-02-12 00:00:00	9	2017-02-05 14:49:43
50549	50538		Suggestion of bankruptcy filed	Suggestion of bankruptcy of D01  KATHERINE J. LAVELLE filed (11 U.S.C. 362).	2010-03-12 00:00:00	0	2017-02-05 14:49:43
50688	50682		Counsel added	Attorney Kreppel, Esq., Gary Howard representing Capital One Bank (USA), NA as of Thu Sep 29 00:00:00 EDT 2011	2011-09-29 00:00:00	1	2017-02-05 14:49:43
50721	50703		Counsel added	On this date 05/24/2012 McCarthy, Esq., William D added as Private Counsel for Corcoran Management Company	2012-05-29 00:00:00	5	2017-02-05 14:49:43
51253	51241		Counsel added	Attorney Brugnoli, III, Esq., Carl A. representing EAN Services LLC as of Tue Sep 06 00:00:00 EDT 2011	2011-09-16 00:00:00	1	2017-02-05 14:49:43
51427	51414		UCC filed	Uniform Counsel Certification Form Filed by	2013-01-03 00:00:00	0	2017-02-05 14:49:43
51584	51576		Counsel added	Attorney Walsh, Esq., Kevin M representing Corcoran Management Company, Inc. As it is Managing agent for Lincoln Apartments, LLC as of Mon Oct 17 00:00:00 EDT 2011	2011-10-17 00:00:00	1	2017-02-05 14:49:43
51707	51699		Notice to quit filed	Notice to quit filed	2010-07-12 00:00:00	2	2017-02-05 14:49:43
51986	51977		Counsel added	Attorney Sardella, Esq., Todd Michael representing Capital One Bank (USA), N.A. as of Wed Sep 07 00:00:00 EDT 2011	2011-09-16 00:00:00	1	2017-02-05 14:49:43
52045	52039		Counsel added	Attorney Wiener, Esq., Stephen A. representing Midland Funding as of Fri Dec 17 00:00:00 EST 2010	2010-12-17 00:00:00	0	2017-02-05 14:49:43
52093	52081		Military affidavit filed	Military Service and Rule 10 Affidavit	2014-07-23 00:00:00	0	2017-02-05 14:49:43
52127	52118		Notice to quit filed	Notice to quit filed	2011-12-14 00:00:00	0	2017-02-05 14:49:43
52199	52194		Counsel added	Attorney Wiener, Esq., Stephen A. representing Vion Holdings LLC as of Fri Jul 15 00:00:00 EDT 2011	2011-07-26 00:00:00	0	2017-02-05 14:49:43
52270	52262		Counsel added	Attorney Kreppel, Esq., Gary Howard representing Capital One Bank (USA), N.A. as of Thu Jan 06 00:00:00 EST 2011	2011-01-07 00:00:00	0	2017-02-05 14:49:43
52354	52343		Counsel added	Attorney Cohen, Esq., Jeremy Moss representing Main Street Acquisition Corp. As Assignee of HSBC as of Mon Apr 25 00:00:00 EDT 2011	2011-04-25 00:00:00	1	2017-02-05 14:49:43
52597	52589		Counsel added	Attorney Sardella, Esq., Todd Michael representing Capital One Bank (USA), N.A. as of Tue Sep 06 00:00:00 EDT 2011	2011-09-16 00:00:00	1	2017-02-05 14:49:43
52693	52671		Suggestion of bankruptcy filed	Suggestion of banruptcy of Michael P Gleason filed (11 U.S.C. 362).	2014-02-27 00:00:00	8	2017-02-05 14:49:43
52814	52788		Suggestion of bankruptcy filed	Suggestion of bankruptcy of [Party] filed (11 U.S.C. 362).	2011-01-27 00:00:00	3	2017-02-05 14:49:43
52866	52842		Counsel added	Attorney Calcagno, Esq., Dennis John representing Milani, Nancy F as of 08/10/2011	2011-08-10 00:00:00	5	2017-02-05 14:49:43
52868	52842		Counsel added	Attorney Calcagno, Esq., Dennis John representing Milani, Henry P as of 08/24/2011	2011-08-24 00:00:00	7	2017-02-05 14:49:43
52987	52980		Counsel added	Attorney Chernin, Esq., Russell S representing ABCO Welding & Industrial Supply Co., Inc as of Fri Dec 17 00:00:00 EST 2010	2010-12-17 00:00:00	0	2017-02-05 14:49:43
53042	53032		Request for continuance	Parties jointly request that case be continued as she is attempting to negotiate settlement.	2010-03-12 00:00:00	0	2017-02-05 14:49:43
53133	53119		Notice to quit filed	Notice to quit filed	2010-06-03 00:00:00	0	2017-02-05 14:49:43
53390	53382		Counsel added	Attorney Sardella, Esq., Todd Michael representing Capital One Bank (USA), N.A. as of Tue Sep 06 00:00:00 EDT 2011	2011-09-16 00:00:00	1	2017-02-05 14:49:43
53431	53420		Counsel added	Attorney Cohen, Esq., Jeremy Moss representing Main Street Acquisition Corp. As Assignee of HSBC as of Mon Apr 25 00:00:00 EDT 2011	2011-04-25 00:00:00	1	2017-02-05 14:49:43
53483	53476		Counsel added	Attorney Kreppel, Esq., Gary Howard representing Capital One Bank (USA), NA as of Thu Sep 29 00:00:00 EDT 2011	2011-09-29 00:00:00	1	2017-02-05 14:49:43
53696	53683		Counsel added	Attorney Cox, Esq., Aaron representing ANJ, Corporation as of Tue Sep 06 00:00:00 EDT 2011	2011-09-16 00:00:00	1	2017-02-05 14:49:43
53813	53802		Notice to quit filed	Notice to quit filed	2010-07-22 00:00:00	3	2017-02-05 14:49:43
53814	53802		Military affidavit filed	Military Service and Rule 10 Affidavit	2010-07-22 00:00:00	4	2017-02-05 14:49:43
54010	54001		Counsel added	Attorney Cox, Esq., Aaron representing ANJ, Corporation as of Tue Sep 06 00:00:00 EDT 2011	2011-09-16 00:00:00	1	2017-02-05 14:49:43
54255	54246		Counsel added	Attorney Cox, Esq., Aaron representing ANJ, Corporation as of Tue Sep 06 00:00:00 EDT 2011	2011-09-16 00:00:00	1	2017-02-05 14:49:43
54276	54265		Counsel added	Attorney Barresi, Esq., Paul Joseph representing Cambridge Housing  Authority as of 05/25/2011	2011-05-25 00:00:00	4	2017-02-05 14:49:43
54292	54281		Counsel added	Attorney Cohen, Esq., Jeremy Moss representing American Express as of Tue Oct 25 00:00:00 EDT 2011	2011-10-25 00:00:00	1	2017-02-05 14:49:43
54346	54336		Counsel added	Attorney Fettig, Esq., Virginia M representing Shirazi, Arash G as of Wed Nov 09 00:00:00 EST 2011	2011-11-09 00:00:00	1	2017-02-05 14:49:43
54350	54336		Counsel added	Attorney Chatfield, Esq., Andrea G representing Lonza Biologics, Inc. as of 11/28/2011	2011-11-28 00:00:00	4	2017-02-05 14:49:43
54381	54364		Counsel added	Attorney Kiritsy, Esq., George P representing Wachusetts Lumber & Building Supply, Inc. as of Mon Apr 25 00:00:00 EDT 2011	2011-04-25 00:00:00	1	2017-02-05 14:49:43
54389	54364		Counsel added	Attorney Kinder, Esq., James Thomas representing Michelle Runyon Formerly known as Michelle Biando as of 05/26/2011	2011-05-26 00:00:00	8	2017-02-05 14:49:43
54533	54527		Assent And Waiver Of Notice fi	An Interested Person,Bernadette M Kennedy; Shawn F Kennedy; Kellie J Zupkofska; Erin L Hughes , Filed MPC 455 toAssent and Waiver of Notice, Waiver of Sureties	2013-12-23 00:00:00	0	2017-02-05 14:49:43
54534	54527		UCC filed	Uniform Counsel Certification Form Filed by Roberta A Schreiber BBO # 447140	2013-12-23 00:00:00	0	2017-02-05 14:49:43
54548	54543		Assent And Waiver Of Notice fi	An Interested Person,Donna M. Gagne

Lowell, MA , Filed MPC 455 toAssent And Waiver Of Notice, Nomination, Waiver of Sureties

06/16/2014	2014-06-16 00:00:00	0	2017-02-05 14:49:43
54549	54543		Assent And Waiver Of Notice fi	An Interested Person,Yaritza Gutierrez p/p/a Christian A. Guzman-Gutierrez (a minor)

Nashua, NH , Filed MPC 455 toAssent And Waiver Of Notice, Waiver of Sureties

06/16/2014	2014-06-16 00:00:00	0	2017-02-05 14:49:43
54678	54660		Suggestion of bankruptcy filed	Suggestion of banruptcy of Paul H Wisenor filed (11 U.S.C. 362).
	2012-08-23 00:00:00	7	2017-02-05 14:49:43
54744	54721		Request for continuance	Parties jointly request that case be continued while payment is being made.	2012-11-01 00:00:00	0	2017-02-05 14:49:43
54745	54721		Suggestion of bankruptcy filed	Suggestion of banruptcy of Eileen Racine filed (11 U.S.C. 362).	2013-02-20 00:00:00	2	2017-02-05 14:49:43
54863	54847		Military affidavit filed	Military Service and Rule 10 Affidavit	2011-12-22 00:00:00	0	2017-02-05 14:49:43
54874	54847		Military affidavit filed	Military Service and Rule 10 Affidavit	2012-02-16 00:00:00	0	2017-02-05 14:49:43
54894	54880		Suggestion of bankruptcy filed	9/6/11 Suggestion of bankruptcy of D01  STEPHANIE A. OUELLETTE filed (11 U.S.C. 362).	2011-09-20 00:00:00	0	2017-02-05 14:49:43
54919	54906		Release of All Demands and Ass	Release of All Demands and Assent to Account (Estate Recovery)	2013-08-23 00:00:00	0	2017-02-05 14:49:43
54999	54987		UCC filed	Uniform Counsel Certification Form Filed by	2013-01-03 00:00:00	0	2017-02-05 14:49:43
55015	55005		Counsel added	Attorney Wilson, Esq., Kenneth C representing Citibank N.A. As successor by merger to Citibank (South Dakota) N.A. as of Tue Sep 06 00:00:00 EDT 2011	2011-09-06 00:00:00	0	2017-02-05 14:49:43
55037	55028		Counsel added	Attorney Kreppel, Esq., Gary Howard representing Discover Bank as of Mon Aug 08 00:00:00 EDT 2011	2011-09-09 00:00:00	0	2017-02-05 14:49:43
55055	55048		Counsel added	Attorney Kreppel, Esq., Gary Howard representing Capital One Bank (USA), N.A. as of Thu Jan 06 00:00:00 EST 2011	2011-01-07 00:00:00	0	2017-02-05 14:49:43
55443	55434		Counsel added	Attorney Cox, Esq., Aaron representing ANJ, Corporation as of Tue Sep 06 00:00:00 EDT 2011	2011-09-16 00:00:00	1	2017-02-05 14:49:43
55566	55561		Assent And Waiver Of Notice fi	An Interested Person,Robert G Pace-Son &   Laureen M Grant-Daughter , Filed MPC 455 toAssent and Waiver of Notice, Waiver of Sureties &  Assent and Waiver of Notice, Renunciation, Waiver of Sureties	2013-12-23 00:00:00	0	2017-02-05 14:49:43
55676	55651		Counsel added	Attorney Resh, Esq., Harvey J representing Wells Fargo Bank, N.A. as of Tue Apr 26 00:00:00 EDT 2011	2011-04-26 00:00:00	1	2017-02-05 14:49:43
55682	55651		Counsel added	Attorney Maloney, Esq., James Andrew representing Belanger, Stephen as of 05/23/2011	2011-05-23 00:00:00	7	2017-02-05 14:49:43
55687	55651		Suggestion of bankruptcy filed	Suggestion of bankruptcy of [Stephen Belanger] filed (11 U.S.C. 362).	2011-06-30 00:00:00	11	2017-02-05 14:49:43
55704	55651		Counsel added	Filed
On this date Patricia M Finnegan, Esq. added as Private Counsel for Trustee Blue Hive, Inc., Trustee	2014-06-20 00:00:00	14	2017-02-05 14:49:43
55710	55651		Suggestion of bankruptcy filed	Suggestion of bankruptcy of Stephen Belanger filed (11 U.S.C. 362).
Docket # 14-42186	2014-10-10 00:00:00	16	2017-02-05 14:49:43
55749	55736		Suggestion of bankruptcy filed	Suggestion of bankruptcy of D01  ANNE M. LEARY filed (11 U.S.C. 362).	2011-03-22 00:00:00	0	2017-02-05 14:49:43
55901	55894		Suggestion of death filed	Suggestion of Death of	2012-04-11 00:00:00	0	2017-02-05 14:49:43
55902	55894		UCC filed	Uniform Counsel Certification Form Filed by	2012-04-11 00:00:00	0	2017-02-05 14:49:43
56088	56076		Notice to quit filed	Notice to quit filed	2011-12-14 00:00:00	0	2017-02-05 14:49:43
56124	56117		Counsel added	Attorney McGonagle, Esq., Patrick J. representing Twomey, Donald as of Wed Sep 07 00:00:00 EDT 2011	2011-09-07 00:00:00	0	2017-02-05 14:49:43
56390	56373		Notice to quit filed	Notice to quit filed	2010-07-12 00:00:00	2	2017-02-05 14:49:43
56531	56526		UCC filed	Uniform Counsel Certification Form Filed by	2011-06-29 00:00:00	0	2017-02-05 14:49:43
56551	56526		Release of All Demands and Ass	Release of All Demands and Assent to Account (JENNIFER T. BONTEMPI)	2012-10-01 00:00:00	0	2017-02-05 14:49:43
56552	56526		Release of All Demands and Ass	Release of All Demands and Assent to Account (KYLE JOHN THORNTON)	2012-10-01 00:00:00	0	2017-02-05 14:49:43
56553	56526		Release of All Demands and Ass	Release of All Demands and Assent to Account

(MATTHEW DAVID THORNTON)	2012-10-01 00:00:00	0	2017-02-05 14:49:43
56554	56526		Release of All Demands and Ass	Release of All Demands and Assent to Account (KATHERINE EMILY DeSANCTIS)	2012-10-01 00:00:00	0	2017-02-05 14:49:43
56555	56526		Release of All Demands and Ass	Release of All Demands and Assent to Account (CARA ANN DeSANCTIS)	2012-10-01 00:00:00	0	2017-02-05 14:49:43
56556	56526		Release of All Demands and Ass	Release of All Demands and Assent to Account (ALEXANDER DeSANCTIS)	2012-10-01 00:00:00	0	2017-02-05 14:49:43
56557	56526		Release of All Demands and Ass	Release of All Demands and Assent to Account (AMY LYNN THORNTON)	2012-10-01 00:00:00	0	2017-02-05 14:49:43
56558	56526		Release of All Demands and Ass	Release of All Demands and Assent to Account (MOLLY ANN THORNTON PRUZYNSKI)	2012-10-01 00:00:00	0	2017-02-05 14:49:43
56559	56526		Release of All Demands and Ass	Release of All Demands and Assent to Account (ELISSA MARY THORNTON WOLF)	2012-10-01 00:00:00	0	2017-02-05 14:49:43
56835	56808		Suggestion of bankruptcy filed	Suggestion of bankruptcy of Nicole I. McKellick filed (11 U.S.C. 362).	2013-02-07 00:00:00	6	2017-02-05 14:49:43
56859	56839		Counsel added	Attorney Reczek, Esq., Erin M. representing American Express Centurion Bank as of Wed Apr 27 00:00:00 EDT 2011	2011-04-27 00:00:00	1	2017-02-05 14:49:43
56942	56919		Motion for successive service 	Motion for successive service of trustee summons  allowed Hon. Joseph I Macy

cd #32-- copies to parties	2013-02-12 00:00:00	0	2017-02-05 14:49:43
57223	57217		Notice of claim	Notice of Claim	2011-01-13 00:00:00	0	2017-02-05 14:49:43
57233	57227		UCC filed	Uniform Counsel Certification Form Filed by	2012-04-11 00:00:00	0	2017-02-05 14:49:43
57322	57313		Counsel added	Attorney Wiener, Esq., Stephen A. representing RAB Performance Recoveries, LLC as of Mon Aug 08 00:00:00 EDT 2011	2011-09-09 00:00:00	0	2017-02-05 14:49:43
57599	57595		Counsel added	Attorney Kreppel, Esq., Gary Howard representing Capital One Bank (USA), NA as of Thu Sep 29 00:00:00 EDT 2011	2011-09-29 00:00:00	1	2017-02-05 14:49:43
57764	57757		Counsel added	Attorney Kreppel, Esq., Gary Howard representing Capital One Bank (Usa), NA as of Wed Sep 07 00:00:00 EDT 2011	2011-09-07 00:00:00	1	2017-02-05 14:49:43
58042	58036		Counsel added	Attorney Reczek, Esq., Erin M. representing Discover Bank as of Tue Sep 13 00:00:00 EDT 2011	2011-09-13 00:00:00	0	2017-02-05 14:49:43
58273	58268		Notice to quit filed	Notice to quit filed	2010-06-03 00:00:00	0	2017-02-05 14:49:43
58343	58330		Counsel added	Attorney Brandow, Esq., Laura White representing Trustees of Fieldstone Condominium Trust as of Tue Nov 08 00:00:00 EST 2011	2011-11-08 00:00:00	1	2017-02-05 14:49:43
58363	58330		Counsel added	On this date 06/14/2012 Hasselbacher, Esq., Erich J. added as Private Counsel for Bank of America, N.A. fka Lasalle Bank National Association As Trustee of Structured Asset Investment Loan Trust Mortgage Pass-Through Certificates, series 2003-BC8/Party-In-Interest	2012-06-14 00:00:00	11	2017-02-05 14:49:43
58399	58393		Counsel added	Attorney Wiener, Esq., Stephen A. representing HSBC Bank Nevada, NA as of Wed Sep 07 00:00:00 EDT 2011	2011-09-07 00:00:00	1	2017-02-05 14:49:43
58443	58429		Counsel added	On this date 06/11/2012 Galas, Jr., Esq., Walter A. added as Private Counsel for Taylor, Amanda	2012-06-19 00:00:00	5	2017-02-05 14:49:43
58481	58454		Suggestion of bankruptcy filed	Suggestion of banruptcy of Florentino J Rodriguez filed (11 U.S.C. 362).
U.S. Bankruptcy Court Case No. 13-43212.	2013-12-30 00:00:00	10	2017-02-05 14:49:43
58632	58622		Military affidavit filed	Military Service and Rule 10 Affidavit	2012-01-05 00:00:00	0	2017-02-05 14:49:43
58668	58657		Counsel added	Attorney Turk, Esq., Jeffrey Craig representing Cambridge Housing  Authority as of 05/23/2011	2011-05-16 00:00:00	5	2017-02-05 14:49:43
58669	58657		Counsel added	Attorney Cianci, Esq., Mark representing Hercules, Edwidge as of 05/23/2011	2011-05-23 00:00:00	4	2017-02-05 14:49:43
58677	58657		Counsel added	Attorney Hegel, Esq., Susan representing Hercules, Edwidge as of 09/08/2011	2011-09-08 00:00:00	10	2017-02-05 14:49:43
58704	58699		UCC filed	Uniform Counsel Certification Form Filed by	2011-06-29 00:00:00	0	2017-02-05 14:49:43
58750	58742		Counsel added	Attorney Wiener, Esq., Stephen A. representing Midland Funding as of Tue Apr 26 00:00:00 EDT 2011	2011-04-26 00:00:00	1	2017-02-05 14:49:43
58793	58784		Counsel added	Attorney Kerr, Esq., John L representing Federated Mutual Insurance Co. A Subrogee of O'Mahoney & Sons Electrical Inc. as of Thu Jul 28 00:00:00 EDT 2011	2011-07-28 00:00:00	0	2017-02-05 14:49:43
58869	58860		UCC filed	Uniform Counsel Certification Form Filed by	2014-01-21 00:00:00	0	2017-02-05 14:49:43
58929	58920		Notice to quit filed	Notice to quit filed	2011-04-28 00:00:00	2	2017-02-05 14:49:43
59059	59050		Counsel added	Attorney Wiener, Esq., Stephen A. representing Midland Funding, LLC as of Mon Aug 08 00:00:00 EDT 2011	2011-09-09 00:00:00	0	2017-02-05 14:49:43
59085	59068		Counsel added	Attorney Kreppel, Esq., Gary Howard representing Capital One Bank as of Thu Jan 06 00:00:00 EST 2011	2011-01-07 00:00:00	0	2017-02-05 14:49:43
59275	59267		Counsel added	Attorney Titlebaum, Esq., Joseph E representing Calvary Investments LLC As Assignee of MBNA/FIA Card Services, NA as of Wed Sep 07 00:00:00 EDT 2011	2011-09-07 00:00:00	1	2017-02-05 14:49:43
59357	59337		Suggestion of bankruptcy filed	Suggestion of bankruptcy of D01  PAUL FRANCIS KENNEY AKA PAUL F. KENNEY filed (11 U.S.C. 362).	2011-05-26 00:00:00	0	2017-02-05 14:49:43
59564	59552		Counsel added	Attorney Wiener, Esq., Stephen A. representing Midland Funding as of Tue Apr 26 00:00:00 EDT 2011	2011-04-26 00:00:00	1	2017-02-05 14:49:43
59591	59583		Counsel added	Attorney Ledoux, Esq., Robert Andre representing Jay-Mar Systems, Inc D/B/A Silco Plumbing Heating & Drain Cleaning as of Tue Sep 13 00:00:00 EDT 2011	2011-09-13 00:00:00	0	2017-02-05 14:49:43
59622	59596		Motion to compel discovery	Motion to compel discovery (Mass.R.Civ.P. 37[a])  allowed Hon. Paul A Losapio

Plaintiff is to provide documents to be used at trial by 09/30/2011.	2011-09-08 00:00:00	0	2017-02-05 14:49:43
59841	59829		UCC filed	Uniform Counsel Certification Form Filed by	2012-04-11 00:00:00	0	2017-02-05 14:49:43
59845	59829		Notice of claim	Notice of Claim	2012-06-18 00:00:00	0	2017-02-05 14:49:43
59872	59851		Military affidavit filed	Affidavit as to Military Service filed.	2010-05-18 00:00:00	0	2017-02-05 14:49:43
59909	59904		Counsel added	Attorney Wilson, Esq., Kenneth C representing Ford Motor Credit Company LLC as of Wed Sep 07 00:00:00 EDT 2011	2011-09-07 00:00:00	1	2017-02-05 14:49:43
59982	59965		Notice to quit filed	Notice to quit filed	2010-07-12 00:00:00	2	2017-02-05 14:49:43
59985	59965		Military affidavit filed	Military Service and Rule 10 Affidavit	2010-07-26 00:00:00	4	2017-02-05 14:49:43
60247	60223		Change of address	Change of address for deft from P O Box 1012,  Wellfleet  MA  to  155 Hunters Lane,  Cobleskill,  NY   12043-7223    Resent entry of default to new address for defendant	2013-02-26 00:00:00	0	2017-02-05 14:49:43
60282	60277		Counsel added	Attorney Wilson, Esq., Kenneth C representing Ford Motor Credit Company LLC as of Wed Sep 07 00:00:00 EDT 2011	2011-09-07 00:00:00	1	2017-02-05 14:49:43
60321	60306		Suggestion of bankruptcy filed	Suggestion of bankruptcy of D01  DORIS C. STANTON filed (11 U.S.C. 362).	2010-06-09 00:00:00	0	2017-02-05 14:49:43
60384	60373		Counsel added	Attorney Sandlin, Esq., Charlene M. representing LVNV Funding as of Tue Apr 26 00:00:00 EDT 2011	2011-04-26 00:00:00	1	2017-02-05 14:49:43
60697	60687		UCC filed	Uniform Counsel Certification Form Filed by	2010-12-14 00:00:00	0	2017-02-05 14:49:43
60723	60712		Counsel added	Attorney Cambece, Esq., James Anthony representing CACH as of Fri Dec 17 00:00:00 EST 2010	2010-12-17 00:00:00	0	2017-02-05 14:49:43
60951	60944		Counsel added	Attorney Kelley, Jr., Esq., Charles D representing Rogadi, Abderrahim as of Thu Jul 28 00:00:00 EDT 2011	2011-07-28 00:00:00	0	2017-02-05 14:49:43
60995	60990		Counsel added	Attorney Wilson, Esq., Kenneth C representing Ford Motor Credit Company LLC as of Wed Sep 07 00:00:00 EDT 2011	2011-09-07 00:00:00	1	2017-02-05 14:49:43
61048	61038		Notice to quit filed	Notice to quit filed	2011-04-28 00:00:00	2	2017-02-05 14:49:43
61221	61195		Motion for successive service 	Motion for successive service of trustee summons  allowed Hon. Joseph I Macy

cd #32-- copies to parties	2013-02-12 00:00:00	0	2017-02-05 14:49:43
61284	61280		UCC filed	Uniform Counsel Certification Form Filed by	2011-06-29 00:00:00	0	2017-02-05 14:49:43
61295	61280		Release of All Demands and Ass	Release of All Demands and Assent to Account (ESTATE RECOVERY PROGRAM --COMM of MASS)	2011-11-03 00:00:00	0	2017-02-05 14:49:43
61298	61280		Release of All Demands and Ass	Release of All Demands and Assent to Account	2012-04-17 00:00:00	0	2017-02-05 14:49:43
61310	61301		Counsel added	Attorney Wiener, Esq., Stephen A. representing RAB Performance Recoveries LLC as of Fri Oct 21 00:00:00 EDT 2011	2011-10-21 00:00:00	1	2017-02-05 14:49:43
61319	61301		Suggestion of bankruptcy filed	Suggestion of bankruptcy of Kathleen Serrato filed (11 U.S.C. 362).	2014-03-04 00:00:00	9	2017-02-05 14:49:43
61432	61426		Suggestion of death filed	Suggestion of Death of Annette I McLeish	2012-04-13 00:00:00	0	2017-02-05 14:49:43
61530	61518		Counsel added	Attorney Wilson, Esq., Kenneth C representing FIA Card Service as of Tue Dec 21 00:00:00 EST 2010	2010-12-21 00:00:00	0	2017-02-05 14:49:43
61575	61568		Counsel added	Attorney Kreppel, Esq., Gary Howard representing Capital One Bank (USA), NA as of Thu Sep 29 00:00:00 EDT 2011	2011-09-29 00:00:00	1	2017-02-05 14:49:43
61720	61710		UCC filed	Uniform Counsel Certification Form Filed by	2012-04-12 00:00:00	0	2017-02-05 14:49:43
61773	61768		Counsel added	Attorney Wilson, Esq., Kenneth C representing Ford Motor Credit Company LLC as of Wed Sep 07 00:00:00 EDT 2011	2011-09-07 00:00:00	1	2017-02-05 14:49:43
62034	61993		Suggestion of bankruptcy filed	Suggestion of bankruptcy of Attn:  George Papageorge Action Oil filed (11 U.S.C. 362).
	2012-04-09 00:00:00	3	2017-02-05 14:49:43
62144	62133		Counsel added	Attorney Brugnoli, III, Esq., Carl A. representing Rhode Island Student Loan Authority as of Tue Nov 08 00:00:00 EST 2011	2011-11-08 00:00:00	1	2017-02-05 14:49:43
62229	62224		Counsel added	On this date 04/24/2012 Wilson, Esq., Kenneth C added as Private Counsel for Equable Ascent Financial, LLC	2012-04-24 00:00:00	1	2017-02-05 14:49:43
62290	62276		Counsel added	Attorney Stiles, Esq., Robert Kevin representing S&M Farms as of Mon Jul 18 00:00:00 EDT 2011	2011-07-18 00:00:00	0	2017-02-05 14:49:43
62435	62407		Suggestion of bankruptcy filed	Suggestion of bankruptcy of Turan Gokcek filed (11 U.S.C. 362).	2015-06-19 00:00:00	3	2017-02-05 14:49:43
62507	62497		Military affidavit filed	Military Service and Rule 10 Affidavit	2011-12-30 00:00:00	0	2017-02-05 14:49:43
62597	62586		Counsel added	Attorney Brooks, Esq., Richard E representing Trustees of the 52 Liberty Street Condominium Trust as of Wed Oct 12 00:00:00 EDT 2011	2011-10-12 00:00:00	1	2017-02-05 14:49:43
62637	62619		UCC filed	Uniform Counsel Certification Form Filed by

Attorney: Diana, Esq., Brenda S	2012-12-13 00:00:00	0	2017-02-05 14:49:43
62890	62884		Counsel added	Attorney Wilson, Esq., Kenneth C representing Discover Bank as of Wed Sep 07 00:00:00 EDT 2011	2011-09-07 00:00:00	1	2017-02-05 14:49:43
62957	62943		Notice to quit filed	Notice to quit filed	2010-07-12 00:00:00	2	2017-02-05 14:49:43
62966	62943		Military affidavit filed	Military Service and Rule 10 Affidavit	2010-09-20 00:00:00	6	2017-02-05 14:49:43
63002	62990		Counsel added	Attorney Wilson, Esq., Kenneth C representing Citibank (South Dakota) as of Tue Dec 21 00:00:00 EST 2010	2010-12-21 00:00:00	0	2017-02-05 14:49:43
63046	63017		Motion for successive service 	Motion for successive service of trustee summons  allowed Hon. Mark A Sullivan
Notices issued.	2014-05-23 00:00:00	0	2017-02-05 14:49:43
63240	63233		Assent And Waiver Of Notice fi	An Interested Person,Michael Schmertzler

New Canaan, Ct , Filed MPC 455 toAssent and Waiver of Notice, Renunciation, Nomination, & Waiver of Sureties	2014-07-23 00:00:00	0	2017-02-05 14:49:43
63254	63248		Counsel added	Attorney Wilson, Esq., Kenneth C representing Discover Bank as of Wed Sep 07 00:00:00 EDT 2011	2011-09-07 00:00:00	1	2017-02-05 14:49:43
63622	63612		UCC filed	Uniform Counsel Certification Form Filed by	2012-04-13 00:00:00	0	2017-02-05 14:49:43
63726	63717		Counsel added	Attorney Cambece, Esq., James Anthony representing CACH, LLC as of Mon Aug 08 00:00:00 EDT 2011	2011-10-21 00:00:00	1	2017-02-05 14:49:43
63863	63843		Request for continuance	Parties jointly request that case be continued while payment is being made at rate of $50.00 per week.
beginning 6/6/14.	2014-05-27 00:00:00	0	2017-02-05 14:49:43
63872	63843		Request for continuance	Parties jointly request that case be continued while payment is being made at rate of $25.00 per week.
1st payment to be made by 11/7/14	2014-10-30 00:00:00	0	2017-02-05 14:49:43
63880	63843		Request for continuance	Parties jointly request that case be continued while payment is being made at rate of $50.00 per month.
Payments are to be made on the 8th of each month, starting on 2/8/15.  (Private agreement)	2015-01-23 00:00:00	0	2017-02-05 14:49:43
63915	63902		Suggestion of bankruptcy filed	Suggestion of banruptcy of Elaine M Neve A/K/A Elaine Neve filed (11 U.S.C. 362).
	2012-07-05 00:00:00	4	2017-02-05 14:49:43
63949	63933		Suggestion of bankruptcy filed	Suggestion of bankruptcy of Timothy D Cook Jr. filed (11 U.S.C. 362).
	2012-01-30 00:00:00	1	2017-02-05 14:49:43
63964	63953		Notice to quit filed	Notice to quit filed	2011-04-28 00:00:00	2	2017-02-05 14:49:43
64002	63991		UCC filed	Uniform Counsel Certification Form Filed by	2010-04-09 00:00:00	0	2017-02-05 14:49:43
64054	64045		Suggestion of bankruptcy filed	Suggestion of bankruptcy of D01  DEBORAH VANDOROS filed (11 U.S.C. 362).  Case number #10-32564-HJB	2010-12-24 00:00:00	0	2017-02-05 14:49:43
64099	64081		Counsel added	On this date 08/27/2012 Anderson, Esq., Roy H added as Private Counsel for Benetti, Paulette	2012-08-27 00:00:00	3	2017-02-05 14:49:43
64417	64400		Counsel added	On this date 04/11/2012 Bagley, Esq., Beth Anne added as Private Counsel for Ediozel Gonzalez A/K/A John Doe	2012-04-11 00:00:00	5	2017-02-05 14:49:43
64422	64400		Counsel added	On this date 09/06/2012 Farley, Esq., Michael J added as Private Counsel for Grassel, Joyce	2012-09-06 00:00:00	7	2017-02-05 14:49:43
64423	64400		Counsel added	On this date 09/06/2012 Farley, Esq., Michael J added as Private Counsel for Grassel, Stephen	2012-09-06 00:00:00	8	2017-02-05 14:49:43
64557	64546		Counsel added	Attorney Dussi, Esq., John Joseph representing Dr. Arthur I. Schwartz, DMD, PC as of Fri Jul 29 00:00:00 EDT 2011	2011-07-29 00:00:00	0	2017-02-05 14:49:43
64584	64579		Counsel added	Attorney Kreppel, Esq., Gary Howard representing Capital One Bank (USA), NA as of Thu Sep 29 00:00:00 EDT 2011	2011-09-29 00:00:00	1	2017-02-05 14:49:43
64812	64801		Counsel added	Attorney Wilson, Esq., Kenneth C representing Discover Bank as of Wed Sep 07 00:00:00 EDT 2011	2011-09-07 00:00:00	1	2017-02-05 14:49:43
64857	64834		Request for continuance	Parties jointly request that case be continued while payment is being made at rate of 125.00 per month.

beginning 09/10/2011	2011-08-23 00:00:00	0	2017-02-05 14:49:43
65052	65040		Counsel added	Attorney Wilson, Esq., Kenneth C representing Citibank (South Dakota) as of Tue Dec 21 00:00:00 EST 2010	2010-12-21 00:00:00	0	2017-02-05 14:49:43
65192	65186		Counsel added	Attorney Wilson, Esq., Kenneth C representing Arrow Financial Services LLC as of Wed Sep 07 00:00:00 EDT 2011	2011-09-07 00:00:00	1	2017-02-05 14:49:43
65244	65220		Suggestion of bankruptcy filed	Suggestion of bankruptcy of Deborah Myers filed (11 U.S.C. 362).

	2011-10-17 00:00:00	1	2017-02-05 14:49:43
65321	65297		Notice to quit filed	Notice to quit filed	2010-07-12 00:00:00	2	2017-02-05 14:49:43
65364	65297		Military affidavit filed	Military Service and Rule 10 Affidavit	2011-08-01 00:00:00	18	2017-02-05 14:49:43
65414	65408		Assent And Waiver Of Notice fi	An Interested Person,H. James Wilson
Natick MA , Filed MPC 455 toAssent And Waiver of Notice
12/27/2013	2013-12-27 00:00:00	0	2017-02-05 14:49:43
65415	65408		Assent And Waiver Of Notice fi	An Interested Person,H. James Wilson II
Newton MA , Filed MPC 455 toAssent And Waiver of Notice
12/27/2013	2013-12-27 00:00:00	0	2017-02-05 14:49:43
65416	65408		Assent And Waiver Of Notice fi	An Interested Person,Pamela Wilson
Wellesley MA , Filed MPC 455 toAssent And Waiver of Notice
12/27/2013	2013-12-27 00:00:00	0	2017-02-05 14:49:43
65417	65408		Assent And Waiver Of Notice fi	An Interested Person,Cynthia Wilson
Brewster MA , Filed MPC 455 toAssent And Waiver of Notice
12/27/2013	2013-12-27 00:00:00	0	2017-02-05 14:49:43
65418	65408		Assent And Waiver Of Notice fi	An Interested Person,Bradley P. Wilson
Wellesley MA , Filed MPC 455 toAssent And Waiver of Notice, Renunciation
12/27/2013	2013-12-27 00:00:00	0	2017-02-05 14:49:43
65419	65408		Assent And Waiver Of Notice fi	An Interested Person,Bradley P. Wilson, Trustee of The Martha P. Wilson Trust
Wellesley MA , Filed MPC 455 toAssent And Waiver of Notice
12/27/2013	2013-12-27 00:00:00	0	2017-02-05 14:49:43
65420	65408		Assent And Waiver Of Notice fi	An Interested Person,H. James Wilson II, Trustee of The Martha P. Wilson Trust
Newton MA , Filed MPC 455 toAssent And Waiver of Notice
12/27/2013	2013-12-27 00:00:00	0	2017-02-05 14:49:43
65455	65450		Counsel added	Attorney Wiener, Esq., Stephen A. representing Portfolio Recovery Associates, LLC as of Tue Apr 26 00:00:00 EDT 2011	2011-04-26 00:00:00	1	2017-02-05 14:49:43
65685	65672		Request for continuance	Parties jointly request that case be continued while payment is being made at rate of $100.00 per month.
beginning 5/11/14.	2014-05-19 00:00:00	0	2017-02-05 14:49:43
65731	65723		UCC filed	Uniform Counsel Certification Form Filed by	2012-04-13 00:00:00	0	2017-02-05 14:49:43
65737	65723		Notice of claim	Notice of Claim	2012-08-27 00:00:00	0	2017-02-05 14:49:43
65869	65862		Notice to quit filed	Notice to quit filed	2011-04-28 00:00:00	2	2017-02-05 14:49:43
66065	66053		Counsel added	Attorney Harris, Esq., Kristen S. representing Infra-Metals Co as of Mon Jul 18 00:00:00 EDT 2011	2011-07-18 00:00:00	0	2017-02-05 14:49:43
66116	66105		Counsel added	Attorney Reczek, Esq., Erin M. representing Discover Bank as of Tue Nov 08 00:00:00 EST 2011	2011-11-08 00:00:00	1	2017-02-05 14:49:43
66340	66334		UCC filed	Uniform Counsel Certification Form Filed by	2010-01-14 00:00:00	0	2017-02-05 14:49:43
66547	66527		Suggestion of bankruptcy filed	Suggestion of bankruptcy of D02  GUILLERMO VALENCIA filed 5/12/11 (11 U.S.C. 362).	2011-05-25 00:00:00	0	2017-02-05 14:49:43
66609	66597		Release of All Demands and Ass	Release of All Demands and Assent to Account	2014-11-04 00:00:00	0	2017-02-05 14:49:43
66722	66715		Counsel added	Attorney Kreppel, Esq., Gary Howard representing Equable Ascent Financial, LLC F/K/A Hilco Receivables, LLC as of Tue Apr 26 00:00:00 EDT 2011	2011-04-26 00:00:00	1	2017-02-05 14:49:43
66969	66959		Counsel added	Attorney Wilson, Esq., Kenneth C representing Citibank, N.A. As successor by merger to Citibank (South Dakota), N.A. as of Tue Aug 09 00:00:00 EDT 2011	2011-08-09 00:00:00	0	2017-02-05 14:49:43
67066	67054		Counsel added	Attorney Kaufman, Esq., Paul William representing Tramonte, Oreste A as of Thu Oct 13 00:00:00 EDT 2011	2011-10-13 00:00:00	1	2017-02-05 14:49:43
67123	67098		Request for continuance	Parties jointly request that case be continued while payment is being made at rate of $50.00 per month.

beginning 11/15/15	2015-10-22 00:00:00	0	2017-02-05 14:49:43
67295	67277		Suggestion of bankruptcy filed	Suggestion of banruptcy of Leonel Santiago filed (11 U.S.C. 362).
Filed 12/27/11	2012-01-12 00:00:00	13	2017-02-05 14:49:43
67425	67420		Notice of claim	Notice of Claim	2012-08-06 00:00:00	0	2017-02-05 14:49:43
67540	67531		Notice to quit filed	Notice to quit filed	2010-07-12 00:00:00	2	2017-02-05 14:49:43
67554	67546		UCC filed	Uniform Counsel Certification Form Filed by	2013-01-04 00:00:00	0	2017-02-05 14:49:43
67606	67589		Request for continuance	Parties jointly request that case be continued while payment is being made.	2012-04-17 00:00:00	0	2017-02-05 14:49:43
67608	67589		Request for continuance	Parties jointly request that case be continued while payment is being made.	2014-02-04 00:00:00	0	2017-02-05 14:49:43
67686	67664		Counsel added	Attorney Wilson, Esq., Kenneth C representing LVNV Funding as of Thu Dec 16 00:00:00 EST 2010	2010-12-16 00:00:00	0	2017-02-05 14:49:43
67937	67933		Counsel added	Attorney Titlebaum, Esq., Joseph E representing Cavalry SPVI, LLC As Assignee of MBNA/FIA Card Services, NA as of Thu Sep 29 00:00:00 EDT 2011	2011-09-29 00:00:00	1	2017-02-05 14:49:43
67991	67985		Counsel added	Attorney Wilson, Esq., Kenneth C representing FIA Card Services, NA as of Wed Sep 07 00:00:00 EDT 2011	2011-09-07 00:00:00	1	2017-02-05 14:49:43
68091	68086		Notice of claim	Notice of Claim	2012-08-06 00:00:00	0	2017-02-05 14:49:43
68158	68148		Counsel added	Attorney Kreppel, Esq., Gary Howard representing LVNV Funding as of Tue Apr 26 00:00:00 EDT 2011	2011-04-26 00:00:00	1	2017-02-05 14:49:43
68218	68210		Counsel added	Attorney Cox, Esq., Aaron representing CACH LLC as of Thu Nov 03 00:00:00 EDT 2011	2011-11-03 00:00:00	1	2017-02-05 14:49:43
68281	68271		UCC filed	Uniform Counsel Certification Form Filed by Susan M. Mooney	2015-05-15 00:00:00	0	2017-02-05 14:49:43
68472	68444		Counsel added	Filed
On this date Brian John Hughes, Esq. added as Private Counsel for Trustee Webster Bank	2013-08-12 00:00:00	7	2017-02-05 14:49:43
68686	68679		Notice to quit filed	Notice to quit filed	2011-04-28 00:00:00	2	2017-02-05 14:49:43
68827	68821		Counsel added	Attorney Wilson, Esq., Kenneth C representing LVNV Funding LLC as of Wed Sep 07 00:00:00 EDT 2011	2011-09-07 00:00:00	1	2017-02-05 14:49:43
68894	68889		Counsel added	Attorney Wiener, Esq., Stephen A. representing FIA Card Services as of Thu Jul 28 00:00:00 EDT 2011	2011-07-28 00:00:00	0	2017-02-05 14:49:43
68899	68889		Suggestion of bankruptcy filed	Suggestion of bankruptcy of Theresa Toto filed (11 U.S.C. 362).

	2011-10-07 00:00:00	0	2017-02-05 14:49:43
68972	68958		Military affidavit filed	MILITARY AFFIDAVIT FILED ON 11/1/10.	2010-11-10 00:00:00	0	2017-02-05 14:49:43
69102	69095		Notice to quit filed	Notice to quit filed	2010-07-12 00:00:00	2	2017-02-05 14:49:43
69207	69199		Counsel added	Attorney Kreppel, Esq., Gary Howard representing FIA Card Service as of Tue Apr 26 00:00:00 EDT 2011	2011-04-26 00:00:00	1	2017-02-05 14:49:43
69274	69260		Suggestion of bankruptcy filed	Suggestion of bankruptcy of D01  NEARY CHADBOURNE filed 4/7/11 (11 U.S.C. 362).	2011-04-20 00:00:00	0	2017-02-05 14:49:43
69347	69336		Counsel added	On this date 08/31/2012 Yesu, Esq., James added as Private Counsel for Commerce Insurance Company	2012-09-06 00:00:00	3	2017-02-05 14:49:43
69415	69365		Motion for summary judgment	Defendant, Town of Clinton's Motion for Summary Judgment, filed.	2011-09-29 00:00:00	0	2017-02-05 14:49:43
69416	69365		Motion for summary judgment	Defendant, Town of Clinton's, Memorandum in Support of its Motion for Summary Judgment, filed.	2011-09-29 00:00:00	0	2017-02-05 14:49:43
69422	69365		Motion for summary judgment	Plaintiff's Opposition to Town of Clinton's Motion for Summary Judgment and Request for Summary Judgment pursuant to Mass.R.Civ.P. 56(c), filed.	2011-11-08 00:00:00	0	2017-02-05 14:49:43
69426	69365		Motion for summary judgment	Appendix of Exhibits to Plaintiff's Opposition to Town of Clinton's Motion for Summary Judgment and Request for Summary Judgment pursuant to Mass.R.Civ.P. 56(c), filed.	2011-11-08 00:00:00	0	2017-02-05 14:49:43
69508	69500		Counsel added	Attorney Wilson, Esq., Kenneth C representing LVNV Funding LLC as of Wed Sep 07 00:00:00 EDT 2011	2011-09-07 00:00:00	1	2017-02-05 14:49:43
69784	69773		Counsel added	Attorney Cranston, Esq., Paul M representing Cranston & Cranston, P.C. as of Fri Dec 17 00:00:00 EST 2010	2010-12-17 00:00:00	0	2017-02-05 14:49:43
69856	69836		Notice of intent to offer medi	Misc Entry:Affidavit in compliance with M.G.L. ch. 233, sec. 79G filed	2012-04-26 00:00:00	0	2017-02-05 14:49:43
70043	70033		Counsel added	Attorney Dussi, Esq., John Joseph representing Yellowbook Sales & Distribution Co., Inc. as of Tue Nov 08 00:00:00 EST 2011	2011-11-08 00:00:00	1	2017-02-05 14:49:43
70345	70327		Counsel added	Attorney Schreiber, Esq., Jeffrey A representing Cavalry SPVI, LLC As Assignee of Chase/Washington Mutual/Providian as of Tue Aug 09 00:00:00 EDT 2011	2011-08-09 00:00:00	0	2017-02-05 14:49:43
70500	70495		Counsel added	Attorney Kreppel, Esq., Gary Howard representing Equable Ascent Financial LLC, FKA Hilco Receivables, LLC as of Tue Apr 26 00:00:00 EDT 2011	2011-04-26 00:00:00	1	2017-02-05 14:49:43
70517	70507		Counsel added	Attorney Wilson, Esq., Kenneth C representing Discover Bank as of Mon Jul 18 00:00:00 EDT 2011	2011-07-18 00:00:00	0	2017-02-05 14:49:43
70679	70657		Suggestion of bankruptcy filed	Suggestion of bankruptcy of Jennifer D Losciuto filed (11 U.S.C. 362).	2014-11-05 00:00:00	9	2017-02-05 14:49:43
70774	70766		Counsel added	Attorney Cox, Esq., Aaron representing CACH LLC as of Thu Nov 03 00:00:00 EDT 2011	2011-11-03 00:00:00	1	2017-02-05 14:49:43
70887	70870		Suggestion of bankruptcy filed	Suggestion of bankruptcy of Mark Flynn D/B/A Flynn Landscaping filed (11 U.S.C. 362).
	2011-12-13 00:00:00	2	2017-02-05 14:49:43
70908	70891		Suggestion of bankruptcy filed	Suggestion of bankruptcy of William T Bachmann filed (11 U.S.C. 362).
14-40360 hjb	2014-06-16 00:00:00	5	2017-02-05 14:49:43
70937	70924		Counsel added	Attorney Kaufman, Esq., Paul William representing Hayes, Jr., Francis P as of Thu Oct 13 00:00:00 EDT 2011	2011-10-13 00:00:00	1	2017-02-05 14:49:43
70946	70924		Counsel added	On this date 12/28/2011 Matusewicz, Esq., Michelle Ann added as Private Counsel for Pires, Jr., James M	2011-12-28 00:00:00	9	2017-02-05 14:49:43
70980	70969		UCC filed	Uniform Counsel Certification Form Filed by	2010-03-04 00:00:00	0	2017-02-05 14:49:43
70985	70969		UCC filed	Uniform Counsel Certification Form Filed by KATHRYN WILSON ESQ.	2010-07-26 00:00:00	0	2017-02-05 14:49:43
71139	71131		Notice to quit filed	Notice to quit filed	2010-07-12 00:00:00	2	2017-02-05 14:49:43
71232	71222		Counsel added	Attorney Wilson, Esq., Kenneth C representing LVNV Funding LLC as of Wed Sep 07 00:00:00 EDT 2011	2011-09-07 00:00:00	1	2017-02-05 14:49:43
71300	71293		Counsel added	Attorney Olshan, Esq., Adam J. representing Midland Funding LLC as of Fri Oct 07 00:00:00 EDT 2011	2011-10-07 00:00:00	1	2017-02-05 14:49:43
71802	71793		UCC filed	Uniform Counsel Certification Form Filed by	2012-04-13 00:00:00	0	2017-02-05 14:49:43
71980	71976		Counsel added	Attorney Wilson, Esq., Kenneth C representing LVNV Funding LLC as of Wed Sep 07 00:00:00 EDT 2011	2011-09-07 00:00:00	1	2017-02-05 14:49:43
72013	72003		Counsel added	Attorney Sardella, Esq., Todd Michael representing Advantage Assets II, Inc. as of Tue Aug 09 00:00:00 EDT 2011	2011-08-09 00:00:00	0	2017-02-05 14:49:43
72208	72201		Notice to quit filed	Notice to quit filed	2011-04-28 00:00:00	2	2017-02-05 14:49:43
72264	72256		Notice to quit filed	Notice to quit filed	2010-07-12 00:00:00	2	2017-02-05 14:49:43
72291	72269		Military affidavit filed	MILITARY AFFIDAVIT FILED ON 11/1/10.	2010-11-10 00:00:00	0	2017-02-05 14:49:43
72430	72389		Appearance filed	Misc Entry: appearance for plff filed 3-9-12	2012-03-16 00:00:00	25	2017-02-05 14:49:43
72431	72389		Appearance filed	Misc Entry:  appearance for dft filed 3-9-12	2012-03-16 00:00:00	26	2017-02-05 14:49:43
72515	72510		UCC filed	Uniform Counsel Certification Form Filed by	2011-07-01 00:00:00	0	2017-02-05 14:49:43
72527	72510		Release of All Demands and Ass	Release of All Demands and Assent to Account	2014-01-07 00:00:00	0	2017-02-05 14:49:43
72640	72619		Suggestion of bankruptcy filed	Suggestion of banruptcy of Joseph Marengo filed (11 U.S.C. 362).

U.S. Bankruptcy Case No. 15-40941	2015-05-18 00:00:00	7	2017-02-05 14:49:43
72763	72749		Counsel added	Attorney Wilson, Esq., Kenneth C representing Citibank, NA As successor by merger to Citibank (South Dakota), NA as of Mon Jul 18 00:00:00 EDT 2011	2011-07-18 00:00:00	0	2017-02-05 14:49:43
72795	72785		Counsel added	Attorney Wilson, Esq., Kenneth C representing LVNV Funding LLC as of Wed Sep 07 00:00:00 EDT 2011	2011-09-07 00:00:00	1	2017-02-05 14:49:43
72814	72785		Suggestion of bankruptcy filed	Suggestion of bankruptcy of Barry Los filed (11 U.S.C. 362).	2014-02-06 00:00:00	4	2017-02-05 14:49:43
73377	73368		Counsel added	Attorney Reczek, Esq., Erin M. representing Discover Bank as of Thu Oct 13 00:00:00 EDT 2011	2011-10-13 00:00:00	1	2017-02-05 14:49:43
73397	73391		Counsel added	Attorney Krems, Esq., Kenneth Albert representing Cambridge Community Housing Development, Inc. as of Mon May 16 00:00:00 EDT 2011	2011-05-16 00:00:00	1	2017-02-05 14:49:43
73412	73402		Counsel added	Attorney Wilson, Esq., Kenneth C representing Advantage Assets II, Inc. As Assignee of Citibank (South Dakota), N.A./ The Home as of Fri Jan 07 00:00:00 EST 2011	2011-01-07 00:00:00	0	2017-02-05 14:49:43
73545	73532		Counsel added	Attorney Wilson, Esq., Kenneth C representing First Resolution Investment Corp as of Wed Sep 07 00:00:00 EDT 2011	2011-09-07 00:00:00	1	2017-02-05 14:49:43
73639	73631		Counsel added	Attorney Cox, Esq., Aaron representing CACH LLC as of Fri Nov 04 00:00:00 EDT 2011	2011-11-04 00:00:00	1	2017-02-05 14:49:43
73660	73653		Assent And Waiver Of Notice fi	An Interested Person,Katherine Arnell Boyle , Filed MPC 455 toAssent and Waiver of Notice & Waiver of Sureties	2014-06-17 00:00:00	0	2017-02-05 14:49:43
73698	73682		Release of All Demands and Ass	Release of All Demands and Assent to Account (Estate Recovery)	2015-06-02 00:00:00	0	2017-02-05 14:49:43
73919	73904		Suggestion of bankruptcy filed	Suggestion of bankruptcy of D01  DAVID HOLLIS AND D02  JODY HOLLIS filed (11 U.S.C. 362). (Discharge of Debtor filed - Case No. 09-42382  Chapter 7)	2010-04-29 00:00:00	0	2017-02-05 14:49:43
74065	74046		Suggestion of bankruptcy filed	Suggestion of bankruptcy of Istenia S Soares A/K/A Istenia S. Hirata A/KA Istenia S. Defaria filed (11 U.S.C. 362).

Case no.14-42241 MSH	2014-10-20 00:00:00	6	2017-02-05 14:49:43
74096	74069		Suggestion of bankruptcy filed	Suggestion of banruptcy of Heidi  a/k/a Heidi D. Chaff Chaff filed (11 U.S.C. 362).

U.S. Bankruptcy Court Case No. 15-41330 MSH.	2015-07-15 00:00:00	8	2017-02-05 14:49:43
74109	74101		Notice to quit filed	Notice to quit filed	2010-07-12 00:00:00	2	2017-02-05 14:49:43
74175	74155		Suggestion of bankruptcy filed	Suggestion of banruptcy of Joanne M Desrosiers filed (11 U.S.C. 362).	2012-12-28 00:00:00	4	2017-02-05 14:49:43
74190	74178		Suggestion of bankruptcy filed	Suggestion of bankruptcy of D01  RICKY J. BOMPANE filed (11 U.S.C. 362).	2010-09-17 00:00:00	0	2017-02-05 14:49:43
74194	74178		Military affidavit filed	MILITARY AFFIDAVIT FILED ON 11/29/10.  DID NOT ISSUE CAPIAS - DEFENDANT FILED BANKRUPTCY.	2010-12-28 00:00:00	0	2017-02-05 14:49:43
74238	74228		Counsel added	Attorney Wilson, Esq., Kenneth C representing Midland Funding LLC As Assignee of Atlantic Credit & Finance, Inc. assignee of Capital One as of Tue Nov 08 00:00:00 EST 2011	2011-11-08 00:00:00	1	2017-02-05 14:49:43
74313	74306		Counsel added	Attorney Krems, Esq., Kenneth Albert representing Cambridge Community Housing, Inc. as of Mon May 16 00:00:00 EDT 2011	2011-05-16 00:00:00	1	2017-02-05 14:49:43
74337	74320		Request for continuance	Parties jointly request that case be continued while payment is being made at rate of $20.00 per month.
beginning 5/26/14.	2014-06-04 00:00:00	0	2017-02-05 14:49:43
74445	74432		Counsel added	Attorney Wilson, Esq., Kenneth C representing LVNV Funding LLC As Assignee of GE Capital/Lowes as of 10/25/2011	2011-10-25 00:00:00	5	2017-02-05 14:49:43
74514	74499		Counsel added	Attorney Maynard, Esq., Jennifer representing Household Finance Corporation II as of Fri Oct 07 00:00:00 EDT 2011	2011-10-07 00:00:00	1	2017-02-05 14:49:43
74533	74521		Counsel added	Attorney Wilson, Esq., Kenneth C representing Citibank, NA As successor by merger to Citibank (South Dakota), NA as of Mon Jul 18 00:00:00 EDT 2011	2011-07-18 00:00:00	0	2017-02-05 14:49:43
74603	74596		Notice to quit filed	Notice to quit filed	2011-04-28 00:00:00	2	2017-02-05 14:49:43
74670	74664		Counsel added	Attorney Caplette, Esq., Michael V representing Dobson, Alfred as of Tue Sep 06 00:00:00 EDT 2011	2011-09-19 00:00:00	1	2017-02-05 14:49:43
74678	74664		Suggestion of bankruptcy filed	Suggestion of bankruptcy of Nivin Montigny filed (11 U.S.C. 362).
	2011-11-10 00:00:00	4	2017-02-05 14:49:43
74926	74922		UCC filed	Uniform Counsel Certification Form Filed by

Attorney: Madge, Esq., Leslie Sleeper	2013-12-26 00:00:00	0	2017-02-05 14:49:43
75293	75283		Counsel added	Attorney Kreppel, Esq., Gary Howard representing Equable Ascent Financial, LLC Formerly known as Hilco Receivalbes, LLC as of Fri Dec 17 00:00:00 EST 2010	2010-12-17 00:00:00	0	2017-02-05 14:49:43
75360	75354		UCC filed	Uniform Counsel Certification Form Filed by	2014-07-07 00:00:00	0	2017-02-05 14:49:43
75421	75401		Answer filed	Answer to trustee summons filed 5/9/11 by SHAW WELDING COMPANY, INC. (G.L. c.246 10-11; Mass.R.Civ.P. 4.2(d)).	2011-05-12 00:00:00	0	2017-02-05 14:49:43
75643	75631		Counsel added	Attorney Davison, Esq., Meredith representing Capital One Bank as of Thu Apr 28 00:00:00 EDT 2011	2011-04-28 00:00:00	1	2017-02-05 14:49:43
75683	75654		Counsel added	On this date 06/08/2012 Wiener, Esq., Stephen A. added as Private Counsel for Midland Funding LLC As Assignee of Beneficial	2012-06-08 00:00:00	0	2017-02-05 14:49:43
75715	75654		Suggestion of bankruptcy filed	Suggestion of banruptcy of Jennifer Granata filed (11 U.S.C. 362).	2014-09-23 00:00:00	0	2017-02-05 14:49:43
75760	75755		Counsel added	Attorney Omar, Esq., Richard John representing Atlantic Credit & Finance Inc asgne of Capital One as of Tue Sep 06 00:00:00 EDT 2011	2011-09-19 00:00:00	1	2017-02-05 14:49:43
75820	75808		Notice to quit filed	Notice to quit filed	2011-12-30 00:00:00	0	2017-02-05 14:49:43
75821	75808		Military affidavit filed	Military Service and Rule 10 Affidavit	2011-12-30 00:00:00	0	2017-02-05 14:49:43
75899	75891		Counsel added	Attorney Kreppel, Esq., Gary Howard representing Equable Ascent Financial LLC Formerly known as Hilco Receivables LLC as of Fri Oct 07 00:00:00 EDT 2011	2011-10-07 00:00:00	1	2017-02-05 14:49:43
75932	75921		Notice to quit filed	Notice to quit filed	2011-02-28 00:00:00	2	2017-02-05 14:49:43
75962	75954		Counsel added	Attorney Reczek, Esq., Erin M. representing Discover Bank as of Thu Oct 13 00:00:00 EDT 2011	2011-10-13 00:00:00	1	2017-02-05 14:49:43
76230	76222		UCC filed	Uniform Counsel Certification Form Filed by	2012-04-17 00:00:00	0	2017-02-05 14:49:43
76455	76420		Change of address	Change of address for JEFFREY R. LINDEQUIST  to ONE MONARCH PL SPRINGFIELD.	2011-03-10 00:00:00	0	2017-02-05 14:49:43
76547	76532		Military affidavit filed	MILITARY AFFIDAVIT FILED ON 11/1/10.	2010-11-10 00:00:00	0	2017-02-05 14:49:43
76562	76556		Assent And Waiver Of Notice fi	An Interested Person,Charles A. Durham , Filed MPC 455 toAssent and Waiver of Notice	2013-12-26 00:00:00	0	2017-02-05 14:49:43
76563	76556		Assent And Waiver Of Notice fi	An Interested Person,Sarah Casey , Filed MPC 455 toAssent and Waiver of Notice	2013-12-26 00:00:00	0	2017-02-05 14:49:43
76564	76556		Assent And Waiver Of Notice fi	An Interested Person,Jeffrey N. Durham , Filed MPC 455 toAssent and Waiver of Notice	2013-12-26 00:00:00	0	2017-02-05 14:49:43
76646	76621		Request for continuance	Parties jointly request that case be continued GENERALLY.	2013-07-26 00:00:00	0	2017-02-05 14:49:43
76775	76764		Notice to quit filed	Notice to quit filed	2011-04-28 00:00:00	2	2017-02-05 14:49:43
76800	76788		Counsel added	Attorney Kreppel, Esq., Gary Howard representing Equable Ascent Financial, LLC Formerly known as Hilco Receivalbes, LLC as of Fri Dec 17 00:00:00 EST 2010	2010-12-17 00:00:00	0	2017-02-05 14:49:43
76806	76788		Suggestion of bankruptcy filed	Suggestion of bankruptcy of Karen A Kenward A/K/A Karen Kenward filed (11 U.S.C. 362).
	2011-08-26 00:00:00	4	2017-02-05 14:49:43
77204	77192		Counsel added	Attorney Davison, Esq., Meredith representing Capital One Bank as of Thu Apr 28 00:00:00 EDT 2011	2011-04-28 00:00:00	1	2017-02-05 14:49:43
77470	77455		Counsel added	Attorney Wilson, Esq., Kenneth C representing Ford Motor Credit Company as of Tue Oct 25 00:00:00 EDT 2011	2011-10-25 00:00:00	1	2017-02-05 14:49:43
77480	77455		Motion for successive service 	Motion for successive service of trustee summons  allowed Hon. Patrick J Hurley

	2012-02-09 00:00:00	0	2017-02-05 14:49:43
77567	77559		Counsel added	Attorney Wiener, Esq., Stephen A. representing MIDLAND FUNDING, LLC as of Thu Jul 21 00:00:00 EDT 2011	2011-07-21 00:00:00	0	2017-02-05 14:49:43
77657	77637		Suggestion of bankruptcy filed	Suggestion of bankruptcy of Carrie A Latulippe filed (11 U.S.C. 362).

Bankruptcy docket no:  13-30628	2013-06-10 00:00:00	2	2017-02-05 14:49:43
77716	77709		Counsel added	Attorney Kreppel, Esq., Gary Howard representing Equable Ascent Financial LLC Formerly known as Hilco Receivables LLC as of Fri Oct 07 00:00:00 EDT 2011	2011-10-07 00:00:00	1	2017-02-05 14:49:43
77724	77709		Suggestion of bankruptcy filed	Suggestion of bankruptcy of Jason Carnes filed (11 U.S.C. 362).	2013-03-27 00:00:00	4	2017-02-05 14:49:43
77732	77727		Notice of claim	Notice OF CLAIM	2013-03-04 00:00:00	0	2017-02-05 14:49:43
77856	77845		Counsel added	Attorney Lennon, Esq., Dean T. representing The Trout Farm Association Trust as of Thu Oct 13 00:00:00 EDT 2011	2011-10-13 00:00:00	1	2017-02-05 14:49:43
77887	77877		Counsel added	Attorney Wiener, Esq., Stephen A. representing Portfolio Recovery Associates, LLC as of Tue Aug 09 00:00:00 EDT 2011	2011-08-09 00:00:00	0	2017-02-05 14:49:43
77936	77923		Counsel added	Attorney Solomon, Esq., Julie B representing Capital One Bank as of Thu Apr 28 00:00:00 EDT 2011	2011-04-28 00:00:00	1	2017-02-05 14:49:43
77940	77923		Counsel added	Attorney Hammond, Esq., George I representing Audette, Keith R as of 06/10/2011	2011-06-10 00:00:00	7	2017-02-05 14:49:43
77942	77923		Suggestion of bankruptcy filed	Suggestion of bankruptcy of Keith R. Audette filed (11 U.S.C. 362).
	2011-07-14 00:00:00	9	2017-02-05 14:49:43
78232	78220		Notice to quit filed	Notice to quit filed	2011-02-28 00:00:00	2	2017-02-05 14:49:43
78270	78241		Appearance filed	appearance for plff filed 8-19-11	2011-08-31 00:00:00	0	2017-02-05 14:49:43
78327	78316		Counsel added	Attorney Kreppel, Esq., Gary Howard representing Equable Ascent Financial, LLC Formerly known as Hilco Receivables, LLC as of Fri Dec 17 00:00:00 EST 2010	2010-12-17 00:00:00	0	2017-02-05 14:49:43
78333	78316		Suggestion of bankruptcy filed	Suggestion of bankruptcy of Joseph Derosier filed (11 U.S.C. 362).	2011-04-08 00:00:00	4	2017-02-05 14:49:43
78726	78715		Counsel added	Attorney Wilson, Esq., Kenneth C representing Citibank (South Dakota) as of Fri Apr 29 00:00:00 EDT 2011	2011-04-29 00:00:00	1	2017-02-05 14:49:43
78835	78827		Counsel added	Attorney Omar, Esq., Richard John representing FIA Card Services, N.A/ as of Tue Nov 08 00:00:00 EST 2011	2011-11-08 00:00:00	1	2017-02-05 14:49:43
79161	79151		Counsel added	Attorney Kreppel, Esq., Gary Howard representing Equable Ascent Financial, LLC Formerly known as Hilco Receivables, LLC as of Fri Dec 17 00:00:00 EST 2010	2010-12-17 00:00:00	0	2017-02-05 14:49:43
79273	79268		Counsel added	Attorney Kreppel, Esq., Gary Howard representing Equable Ascent Financial LLC Formerly known as Hilco Receivables LLC as of Fri Oct 07 00:00:00 EDT 2011	2011-10-07 00:00:00	1	2017-02-05 14:49:43
79277	79268		Suggestion of bankruptcy filed	Suggestion of bankruptcy of Daniel P McDonald A/K/A Daniel McDonald filed (11 U.S.C. 362).

	2011-12-12 00:00:00	4	2017-02-05 14:49:43
79289	79279		Counsel added	Attorney Wilson, Esq., Kenneth C representing LVNV Funding LLC As Assignee of HSBC Bank Nevada National Association/Best Buy as of Tue Oct 25 00:00:00 EDT 2011	2011-10-25 00:00:00	1	2017-02-05 14:49:43
79382	79375		Assent And Waiver Of Notice fi	An Interested Person,Walter V. Lane, Jr.

Chelmsford MA , Filed MPC 455 toAssent And Waiver of Notice, Waiver of Sureties

12/26/2013	2013-12-26 00:00:00	0	2017-02-05 14:49:43
79383	79375		Assent And Waiver Of Notice fi	An Interested Person,Donna Virginia Matte

Newbury NH , Filed MPC 455 toAssent And Waiver of Notice, Waiver of Sureties

12/26/2013	2013-12-26 00:00:00	0	2017-02-05 14:49:43
79384	79375		Assent And Waiver Of Notice fi	An Interested Person,Kevin Michael Lane

Deltona FL , Filed MPC 455 toAssent And Waiver of Notice, Waiver of Sureties

12/26/2013	2013-12-26 00:00:00	0	2017-02-05 14:49:43
79385	79375		Assent And Waiver Of Notice fi	An Interested Person,Dennis John Lane

Tyngsborough MA , Filed MPC 455 toAssent And Waiver of Notice, Waiver of Sureties

12/26/2013	2013-12-26 00:00:00	0	2017-02-05 14:49:43
79386	79375		Assent And Waiver Of Notice fi	An Interested Person,Thomas R. Lane

No. Billerica MA , Filed MPC 455 toAssent And Waiver of Notice, Waiver of Sureties

12/26/2013	2013-12-26 00:00:00	0	2017-02-05 14:49:43
79387	79375		UCC filed	Uniform Counsel Certification Form Filed by	2013-12-26 00:00:00	0	2017-02-05 14:49:43
79407	79396		Notice to quit filed	Notice to quit filed	2011-04-28 00:00:00	2	2017-02-05 14:49:43
79574	79551		Appearance filed	appearance for plff filed 8-19-11	2011-08-31 00:00:00	0	2017-02-05 14:49:43
79685	79674		Counsel added	Attorney Kreppel, Esq., Gary Howard representing GE Money Bank as of Thu Apr 28 00:00:00 EDT 2011	2011-04-28 00:00:00	1	2017-02-05 14:49:43
79874	79862		Counsel added	Attorney Kreppel, Esq., Gary Howard representing Capital One Bank (USA), N.A. as of Thu Sep 08 00:00:00 EDT 2011	2011-09-08 00:00:00	1	2017-02-05 14:49:43
79886	79862		Suggestion of bankruptcy filed	Suggestion of bankruptcy of Judy L Dowd, Thomas F Dowd, Jr. A/K/A Thomas F Dowd filed (11 U.S.C. 362).	2013-11-07 00:00:00	10	2017-02-05 14:49:43
80016	80007		Counsel added	Attorney Kreppel, Esq., Gary Howard representing Equable Ascent Financial, LLC Formerly known as Hilco Receivables, LLC as of Fri Dec 17 00:00:00 EST 2010	2010-12-17 00:00:00	0	2017-02-05 14:49:43
80040	80031		UCC filed	Uniform Counsel Certification Form Filed by	2012-04-17 00:00:00	0	2017-02-05 14:49:43
80051	80044		Counsel added	Attorney Wiener, Esq., Stephen A. representing Capital One Bank (USA), NA as of Thu Jul 21 00:00:00 EDT 2011	2011-07-21 00:00:00	0	2017-02-05 14:49:43
80067	80060		Assent And Waiver Of Notice fi	An Interested Person,(4)

Maria Leite; Frank Mello; Clayton E James Jr; & David G James Trust, Katelyn Kavanaugh, Trustee , Filed MPC 455 toAssent and Waiver of Notice, Nomination, & Waiver of Sureties	2014-06-17 00:00:00	0	2017-02-05 14:49:43
80251	80240		Military affidavit filed	Military Service and Rule 10 Affidavit	2010-01-14 00:00:00	0	2017-02-05 14:49:43
80396	80388		UCC filed	Uniform Counsel Certification Form Filed by	2013-12-26 00:00:00	0	2017-02-05 14:49:43
80446	80439		Suggestion of death filed	Suggestion of Death of Eleanor t. Gately	2014-07-07 00:00:00	0	2017-02-05 14:49:43
80493	80483		Corporate disclosure statement	Corporate disclosure statement filed by Corporate Party (S.J.C. Rule 1:21).	2011-04-28 00:00:00	5	2017-02-05 14:49:43
80494	80483		Counsel added	Attorney Kreppel, Esq., Gary Howard representing GE Money Bank as of Thu Apr 28 00:00:00 EDT 2011	2011-04-28 00:00:00	1	2017-02-05 14:49:43
80577	80565		Corporate disclosure statement	Corporate disclosure statement filed by Corporate Party (S.J.C. Rule 1:21).	2013-11-07 00:00:00	5	2017-02-05 14:49:43
80661	80649		Suggestion of bankruptcy filed	Suggestion of bankruptcy of D01  SARA LOIS LINDSTROM filed (11 U.S.C. 362).	2011-05-13 00:00:00	0	2017-02-05 14:49:43
80750	80736		Counsel added	Attorney Maynard, Esq., Jennifer representing Household Finance Corporation II as of Fri Sep 09 00:00:00 EDT 2011	2011-09-09 00:00:00	1	2017-02-05 14:49:43
80782	80776		Counsel added	Attorney Dunleavy, Esq., Debra Anne representing Roberta Purcell & Martin Muysenberg as of Tue Dec 21 00:00:00 EST 2010	2010-12-21 00:00:00	0	2017-02-05 14:49:43
80877	80868		Notice to quit filed	Notice to quit filed	2011-02-28 00:00:00	2	2017-02-05 14:49:43
80988	80965		Counsel added	Filed
On this date Renee Inomata, Esq. added as Private Counsel for Trustee Agencyport Insurance Services, Inc., dba Sword Insurance Group	2013-04-24 00:00:00	8	2017-02-05 14:49:43
81100	81088		Counsel added	On this date 09/06/2012 Kulinski, Esq., Paul Francis added as Private Counsel for Gonzalez, Javier	2012-09-06 00:00:00	5	2017-02-05 14:49:43
81131	81109		Suggestion of bankruptcy filed	Suggestion of bankruptcy of Linda Nevaroff filed (11 U.S.C. 362).	2013-03-19 00:00:00	6	2017-02-05 14:49:43
81226	81219		Counsel added	Attorney Wilson, Esq., Kenneth C representing Ford Motor Credit as of Thu Dec 16 00:00:00 EST 2010	2010-12-16 00:00:00	0	2017-02-05 14:49:43
81364	81340		Release of All Demands and Ass	Release of All Demands and Assent to Account	2012-02-13 00:00:00	0	2017-02-05 14:49:43
81405	81387		Counsel added	Attorney Wiener, Esq., Stephen A. representing Target National Bank as of Tue Aug 09 00:00:00 EDT 2011	2011-08-09 00:00:00	0	2017-02-05 14:49:43
81503	81499		UCC filed	Uniform Counsel Certification Form Filed by	2013-01-08 00:00:00	0	2017-02-05 14:49:43
81593	81578		Suggestion of bankruptcy filed	Suggestion of bankruptcy of D01  PAUL G. BUDUKIEWICZ filed (11 U.S.C. 362).	2011-06-02 00:00:00	0	2017-02-05 14:49:43
81628	81618		Corporate disclosure statement	Corporate disclosure statement filed by Corporate Party (S.J.C. Rule 1:21).	2011-04-29 00:00:00	5	2017-02-05 14:49:43
81629	81618		Counsel added	Attorney Solomon, Esq., Julie B representing Capital One Bank as of Fri Apr 29 00:00:00 EDT 2011	2011-04-29 00:00:00	1	2017-02-05 14:49:43
81667	81645		Counsel added	On this date 04/23/2012 Morse, Esq., Bonnie added as Private Counsel for Route 140 School Street LLC	2012-04-23 00:00:00	9	2017-02-05 14:49:43
81671	81645		Counsel added	On this date 05/10/2012 Morse, Esq., Bonnie added as Private Counsel for Route 140 School Street, LLC As it is Third Party Plaintiff	2012-05-10 00:00:00	10	2017-02-05 14:49:43
81674	81645		Counsel added	On this date 06/20/2012 Kerr, Esq., John L added as Private Counsel for Lipinski Snow Services, Inc.	2012-06-20 00:00:00	13	2017-02-05 14:49:43
81679	81645		Counsel added	On this date 07/17/2012 Tabasky, Esq., Jonathan F. added as Private Counsel for Kohl's Department Stores, Inc. As it is Third Party Defendant	2012-07-17 00:00:00	18	2017-02-05 14:49:43
81782	81776		Assent And Waiver Of Notice fi	An Interested Person,Christina Perez

Lake Havasu City AZ , Filed MPC 455 toAssent And Waiver of Notice, Renunciation and, Waiver of Sureties

12/26/2013	2013-12-26 00:00:00	0	2017-02-05 14:49:43
81798	81787		Suggestion of bankruptcy filed	Suggestion of bankruptcy of Edward Dehay A/K/A Edward J Dehay filed (11 U.S.C. 362).	2013-02-04 00:00:00	4	2017-02-05 14:49:43
81870	81852		Request for continuance	Parties jointly request that case be continued generally.	2011-05-27 00:00:00	0	2017-02-05 14:49:43
81967	81962		Counsel added	Attorney Kreppel, Esq., Gary Howard representing Palisades Collection, LLC, assignee of First USA as of Thu Dec 16 00:00:00 EST 2010	2010-12-16 00:00:00	0	2017-02-05 14:49:43
82172	82162		Counsel added	Attorney Tommasino, Esq., William P representing Leahy, Patrick as of Tue Oct 25 00:00:00 EDT 2011	2011-10-25 00:00:00	1	2017-02-05 14:49:43
82173	82162		Counsel added	Attorney Tommasino, Esq., William P representing Leahy, Tracey as of Tue Oct 25 00:00:00 EDT 2011	2011-10-25 00:00:00	2	2017-02-05 14:49:43
82186	82180		Corporate disclosure statement	Corporate disclosure statement filed by Corporate Party (S.J.C. Rule 1:21).	2014-07-31 00:00:00	4	2017-02-05 14:49:43
82259	82248		Counsel added	Attorney Kreppel, Esq., Gary Howard representing Barry C. Arment DMD as of Tue Nov 08 00:00:00 EST 2011	2011-11-08 00:00:00	1	2017-02-05 14:49:43
82356	82346		Notice to quit filed	Notice to quit filed	2013-10-03 00:00:00	0	2017-02-05 14:49:43
82391	82386		Assent And Waiver Of Notice fi	An Interested Person,San Juanita Salinas Flores

Pharr TX , Filed MPC 455 toAssent And Waiver of Notice, Renunciation and, Waiver of Sureties

12/26/2013	2013-12-26 00:00:00	0	2017-02-05 14:49:43
82392	82386		Assent And Waiver Of Notice fi	An Interested Person,Odilia Salinas Hurtado

McAllen TX , Filed MPC 455 toAssent And Waiver of Notice, Renunciation and, Waiver of Sureties

12/26/2013	2013-12-26 00:00:00	0	2017-02-05 14:49:43
82393	82386		Assent And Waiver Of Notice fi	An Interested Person,Joel Salinas 

Donna TX , Filed MPC 455 toAssent And Waiver of Notice, Renunciation and , Waiver of Sureties

12/26/2013	2013-12-26 00:00:00	0	2017-02-05 14:49:43
82394	82386		Assent And Waiver Of Notice fi	An Interested Person,Alfonso Bravo 

San Juan TX , Filed MPC 455 toAssent And Waiver of Notice, Waiver of Sureties

12/26/2013	2013-12-26 00:00:00	0	2017-02-05 14:49:43
82449	82434		Counsel added	Attorney Dussi, Esq., John Joseph representing Agar Supply Co as of Fri Sep 09 00:00:00 EDT 2011	2011-09-16 00:00:00	1	2017-02-05 14:49:43
82539	82530		Counsel added	Attorney Kreppel, Esq., Gary Howard representing Capital One Bank as of 09/01/2011	2011-09-01 00:00:00	3	2017-02-05 14:49:43
82634	82626		UCC filed	Uniform Counsel Certification Form Filed by



Attorney: George E. Levoy BBO#548401	2014-06-17 00:00:00	0	2017-02-05 14:49:43
82694	82670		Counsel added	Filed
On this date Christopher M. Waterman, Esq. added as Private Counsel for Trustee Knapp, Schenck & Company Insurance Agency, Inc.	2013-12-23 00:00:00	8	2017-02-05 14:49:43
82707	82701		Assent And Waiver Of Notice fi	An Interested Person,Rosa A. Gonzalez

Miami FL , Filed MPC 455 toAssent And Waiver of Notice, Waiver of Sureties

12/26/2013	2013-12-26 00:00:00	0	2017-02-05 14:49:43
82708	82701		Assent And Waiver Of Notice fi	An Interested Person,Gloria E. Gonzalez

Round Rock TX , Filed MPC 455 toAssent And Waiver of Notice, Waiver of Sureties

12/26/2013	2013-12-26 00:00:00	0	2017-02-05 14:49:43
82709	82701		Assent And Waiver Of Notice fi	An Interested Person,Jacqueline Cantu

Mederland TX , Filed MPC 455 toAssent And Waiver of Notice, Renunciation and, Waiver of Sureties

12/26/2013	2013-12-26 00:00:00	0	2017-02-05 14:49:43
82710	82701		Assent And Waiver Of Notice fi	An Interested Person,Maria Coronado

Pflugerville TX , Filed MPC 455 toAssent And Waiver of Notice, Renunciation and, Waiver of Sureties

12/26/2013	2013-12-26 00:00:00	0	2017-02-05 14:49:43
82711	82701		Assent And Waiver Of Notice fi	An Interested Person,Gloria Gonzalez Bautista

Round Rock TX , Filed MPC 455 toAssent And Waiver of Notice, Renunciation and Nomination, Waiver of Sureties	2013-12-26 00:00:00	0	2017-02-05 14:49:43
82712	82701		Assent And Waiver Of Notice fi	An Interested Person,Juan Gonzalez

Edinburg TX , Filed MPC 455 toAssent And Waiver of Notice, Renunciation and, Waiver of Sureties

12/26/2013	2013-12-26 00:00:00	0	2017-02-05 14:49:43
82754	82747		Corporate disclosure statement	Corporate disclosure statement filed by Corporate Party (S.J.C. Rule 1:21).	2013-09-10 00:00:00	4	2017-02-05 14:49:43
82790	82773		Notice of claim	Notice OF CLAIM	2013-02-19 00:00:00	0	2017-02-05 14:49:43
82971	82963		Counsel added	Attorney Wiener, Esq., Stephen A. representing Capital One Bank (USA), NA as of Thu Jul 21 00:00:00 EDT 2011	2011-07-21 00:00:00	0	2017-02-05 14:49:43
83114	83109		Counsel added	Attorney Wiener, Esq., Stephen A. representing Midland Funding, LLC as of Fri Sep 09 00:00:00 EDT 2011	2011-09-19 00:00:00	1	2017-02-05 14:49:43
83215	83207		Notice to quit filed	Notice to quit filed	2011-02-28 00:00:00	2	2017-02-05 14:49:43
83598	83592		Assent And Waiver Of Notice fi	An Interested Person,Franny DeJesus Graham

Framinham, MA , Filed MPC 455 toAssent And Waiver Of Notice, Renunciation, Nomination, Waiver of Sureties

06/16/2014	2014-06-16 00:00:00	0	2017-02-05 14:49:43
83632	83623		Counsel added	Attorney Wilson, Esq., Kenneth C representing Barclays Bank Delaware/Juniper as of Tue Aug 09 00:00:00 EDT 2011	2011-08-09 00:00:00	0	2017-02-05 14:49:43
83767	83742		UCC filed	Uniform Counsel Certification Form Filed by	2013-03-08 00:00:00	0	2017-02-05 14:49:43
83768	83742		Notice of claim	Notice OF CLAIM	2013-03-08 00:00:00	0	2017-02-05 14:49:43
83769	83742		Notice of claim	Notice OF CLAIM	2013-03-12 00:00:00	0	2017-02-05 14:49:43
83823	83816		Counsel added	Attorney Titlebaum, Esq., Joseph E representing Cavalry SPVI, LLC assignee of GMAC as of Fri Sep 09 00:00:00 EDT 2011	2011-09-19 00:00:00	1	2017-02-05 14:49:43
83991	83979		Military affidavit filed	Military Service and Rule 10 Affidavit	2012-08-09 00:00:00	0	2017-02-05 14:49:43
83994	83979		Notice to quit filed	Notice to quit filed	2012-08-20 00:00:00	0	2017-02-05 14:49:43
84046	84039		Corporate disclosure statement	Corporate disclosure statement filed by Corporate Party (S.J.C. Rule 1:21).	2013-09-10 00:00:00	4	2017-02-05 14:49:43
84195	84190		Notice of claim	Notice of Claim	2011-02-28 00:00:00	0	2017-02-05 14:49:43
84219	84203		Notice of claim	Notice of Claim	2013-04-23 00:00:00	0	2017-02-05 14:49:43
84253	84239		Suggestion of bankruptcy filed	Suggestion of bankruptcy of Dawn Laduke filed (11 U.S.C. 362).	2013-04-08 00:00:00	4	2017-02-05 14:49:43
84488	84458		Suggestion of bankruptcy filed	Suggestion of banruptcy of Todd D Demeule A/K/A Todd D DeMeule filed (11 U.S.C. 362).	2015-07-22 00:00:00	5	2017-02-05 14:49:43
84536	84529		UCC filed	Uniform Counsel Certification Form Filed by David M. Shaw	2014-07-22 00:00:00	0	2017-02-05 14:49:43
84733	84726		Counsel added	Attorney Titlebaum, Esq., Joseph E representing Cavalry SPVI, LLC assignee of GMAC as of Fri Sep 09 00:00:00 EDT 2011	2011-09-19 00:00:00	1	2017-02-05 14:49:43
84895	84882		Corporate disclosure statement	Corporate disclosure statement filed by Corporate Party (S.J.C. Rule 1:21).	2010-12-21 00:00:00	4	2017-02-05 14:49:43
84897	84882		Counsel added	Attorney Solomon, Esq., Julie B representing Massachusetts Electric Company D/B/A National Grid as of Tue Dec 21 00:00:00 EST 2010	2010-12-21 00:00:00	0	2017-02-05 14:49:43
84963	84944		Suggestion of bankruptcy filed	Suggestion of bankruptcy of D01  JENNIFER MOSHER filed (11 U.S.C. 362).	2011-09-14 00:00:00	0	2017-02-05 14:49:43
85008	84997		Corporate disclosure statement	Corporate disclosure statement filed by Corporate Party (S.J.C. Rule 1:21).	2011-10-25 00:00:00	5	2017-02-05 14:49:43
85109	85100		Notice to quit filed	Notice to quit filed	2011-02-28 00:00:00	2	2017-02-05 14:49:43
85170	85161		Corporate disclosure statement	Corporate disclosure statement filed by Corporate Party (S.J.C. Rule 1:21).	2012-12-17 00:00:00	5	2017-02-05 14:49:43
85241	85229		Suggestion of bankruptcy filed	Suggestion of banruptcy of LVNV Funding LLC As Assignee of Citibank/Sears filed (11 U.S.C. 362).


Chapter 7    #12-15063	2012-06-21 00:00:00	4	2017-02-05 14:49:43
85249	85244		Assent And Waiver Of Notice fi	An Interested Person,Curtis Douglas

Palmdale CA , Filed MPC 455 toAssent And Waiver of Notice, Waiver of Sureties

12/26/2013	2013-12-26 00:00:00	0	2017-02-05 14:49:43
85250	85244		Assent And Waiver Of Notice fi	An Interested Person,Alpha Ries 

Palmdale CA , Filed MPC 455 toAssent And Waiver of Notice, Renunciation and,  Waiver of Sureties

12/26/2013	2013-12-26 00:00:00	0	2017-02-05 14:49:43
85350	85343		UCC filed	Uniform Counsel Certification Form Filed by	2013-01-10 00:00:00	0	2017-02-05 14:49:43
85365	85358		Corporate disclosure statement	Corporate disclosure statement filed by Corporate Party (S.J.C. Rule 1:21).	2013-09-10 00:00:00	4	2017-02-05 14:49:43
85509	85495		UCC filed	Uniform Counsel Certification Form Filed by Mark W. Barrett	2014-09-22 00:00:00	0	2017-02-05 14:49:43
85550	85539		Corporate disclosure statement	Corporate disclosure statement filed by Corporate Party (S.J.C. Rule 1:21).	2010-12-21 00:00:00	4	2017-02-05 14:49:43
85552	85539		Counsel added	Attorney Wiener, Esq., Stephen A. representing FIA Card Service as of Tue Dec 21 00:00:00 EST 2010	2010-12-21 00:00:00	0	2017-02-05 14:49:43
85739	85732		UCC filed	Uniform Counsel Certification Form Filed by	2014-06-16 00:00:00	0	2017-02-05 14:49:43
85807	85797		Counsel added	Attorney Wilson, Esq., Kenneth C representing Midland Funding LLC As Assignee of Atlantic Credit & Finance, Inc assignee of HSBC as of Tue Aug 09 00:00:00 EDT 2011	2011-08-09 00:00:00	0	2017-02-05 14:49:43
85865	85859		Suggestion of death filed	Suggestion of Death of Nancy K. Cassidy	2012-04-20 00:00:00	0	2017-02-05 14:49:43
85975	85959		Suggestion of bankruptcy filed	Suggestion of banruptcy of Mary F Tierney filed (11 U.S.C. 362).	2013-06-13 00:00:00	4	2017-02-05 14:49:43
85990	85980		Corporate disclosure statement	Corporate disclosure statement filed by Corporate Party (S.J.C. Rule 1:21).	2012-12-17 00:00:00	5	2017-02-05 14:49:43
86060	86054		Counsel added	Attorney Wiener, Esq., Stephen A. representing Capital One Bank (USA), NA as of Thu Jul 21 00:00:00 EDT 2011	2011-07-21 00:00:00	0	2017-02-05 14:49:43
86134	86126		Counsel added	Attorney Kreppel, Esq., Gary Howard representing Barry C. Arment DMD as of Tue Nov 08 00:00:00 EST 2011	2011-11-08 00:00:00	1	2017-02-05 14:49:43
86281	86272		Corporate disclosure statement	Corporate disclosure statement filed by Corporate Party (S.J.C. Rule 1:21).	2010-12-21 00:00:00	4	2017-02-05 14:49:43
86283	86272		Counsel added	Attorney Wiener, Esq., Stephen A. representing Discover as of Tue Dec 21 00:00:00 EST 2010	2010-12-21 00:00:00	0	2017-02-05 14:49:43
86371	86364		Corporate disclosure statement	Corporate disclosure statement filed by Corporate Party (S.J.C. Rule 1:21).	2013-09-10 00:00:00	4	2017-02-05 14:49:43
86598	86589		Counsel added	Attorney Wiener, Esq., Stephen A. representing Midland Funding LLC as of Mon Jan 10 00:00:00 EST 2011	2011-01-11 00:00:00	0	2017-02-05 14:49:43
86639	86630		Corporate disclosure statement	Corporate disclosure statement filed by Corporate Party (S.J.C. Rule 1:21).	2013-07-25 00:00:00	5	2017-02-05 14:49:43
86684	86679		Assent And Waiver Of Notice fi	An Interested Person,Jill Anise Hoy

Somerville, MA , Filed MPC 455 toAssent And Waiver Of Notice, Waiver of Sureties

06/16/2014	2014-06-16 00:00:00	0	2017-02-05 14:49:43
86685	86679		Assent And Waiver Of Notice fi	An Interested Person,Gabriel Imber

Somerville, MA , Filed MPC 455 toAssent And Waiver Of Notice, Waiver of Sureties

06/16/2014	2014-06-16 00:00:00	0	2017-02-05 14:49:43
86847	86835		Notice of claim	Notice of Claim	2012-08-20 00:00:00	0	2017-02-05 14:49:43
87041	87032		Suggestion of death filed	Suggestion of Death of John Britwell	2010-12-15 00:00:00	0	2017-02-05 14:49:43
87049	87032		Suggestion of death filed	Suggestion of Death of ANTONETTA MAZZINI	2011-11-14 00:00:00	0	2017-02-05 14:49:43
87111	87087		Counsel withdrawal	On this date 08/27/2012 Sardella, Esq., Todd Michael dismissed/withdrawn as Private Counsel for Palisades Collection, Llc	2012-08-27 00:00:00	1	2017-02-05 14:49:43
87124	87117		Corporate disclosure statement	Corporate disclosure statement filed by Corporate Party (S.J.C. Rule 1:21).	2013-09-10 00:00:00	4	2017-02-05 14:49:43
87561	87549		Notice of claim	Notice OF CLAIM	2013-03-12 00:00:00	0	2017-02-05 14:49:43
87615	87606		Notice to quit filed	Notice to quit filed	2011-02-28 00:00:00	2	2017-02-05 14:49:43
87737	87721		Counsel added	Attorney Omar, Esq., Richard John representing Palisades Collection, LLC as of Tue Dec 21 00:00:00 EST 2010	2010-12-21 00:00:00	0	2017-02-05 14:49:43
87769	87760		Corporate disclosure statement	Corporate disclosure statement filed by Corporate Party (S.J.C. Rule 1:21).	2014-04-22 00:00:00	4	2017-02-05 14:49:43
88087	88077		Military affidavit filed	Military Service and Rule 10 Affidavit	2012-08-10 00:00:00	0	2017-02-05 14:49:43
88198	88191		Corporate disclosure statement	Corporate disclosure statement filed by Corporate Party (S.J.C. Rule 1:21).	2013-09-10 00:00:00	4	2017-02-05 14:49:43
88216	88209		Corporate disclosure statement	Corporate disclosure statement filed by Corporate Party (S.J.C. Rule 1:21).	2014-01-31 00:00:00	5	2017-02-05 14:49:43
88329	88322		Assent And Waiver Of Notice fi	An Interested Person,Susan K. Brown
Hudson, NH , Filed MPC 455 toAssent and Waiver of Notice & Waiver of Sureties	2014-07-10 00:00:00	0	2017-02-05 14:49:43
88330	88322		Assent And Waiver Of Notice fi	An Interested Person,Susan K. Brown, Trustee of David F. Foster Rev Trust
Hudson, NH , Filed MPC 455 toAssent and Waiver of Notice & Waiver of Sureties	2014-07-10 00:00:00	0	2017-02-05 14:49:43
88331	88322		Assent And Waiver Of Notice fi	An Interested Person,Christina D. Brigham
Brookline, NH , Filed MPC 455 toAssent and Waiver of Notice & Waiver of Sureties	2014-07-10 00:00:00	0	2017-02-05 14:49:43
88332	88322		Assent And Waiver Of Notice fi	An Interested Person,Craig J. Brown
Brookline,NH , Filed MPC 455 toAssent and Waiver of Notice & Waiver of Sureties	2014-07-10 00:00:00	0	2017-02-05 14:49:43
88333	88322		UCC filed	Uniform Counsel Certification Form Filed by
Attorney:Thomas B. Doyle BBO#134200	2014-07-10 00:00:00	0	2017-02-05 14:49:43
88442	88411		Suggestion of bankruptcy filed	Suggestion of bankruptcy of Mark J Barry filed (11 U.S.C. 362).
case number 14-12878	2014-06-28 00:00:00	8	2017-02-05 14:49:43
88458	88444		Corporate disclosure statement	Corporate disclosure statement filed by Corporate Party (S.J.C. Rule 1:21).	2011-10-25 00:00:00	5	2017-02-05 14:49:43
88460	88444		Counsel added	Attorney Wilson, Esq., Kenneth C representing Discover Bank as of Tue Oct 25 00:00:00 EDT 2011	2011-10-25 00:00:00	1	2017-02-05 14:49:43
88541	88532		Counsel added	Attorney Omar, Esq., Richard John representing Unifund CCR as of Tue Dec 21 00:00:00 EST 2010	2010-12-21 00:00:00	0	2017-02-05 14:49:43
88615	88607		Assent And Waiver Of Notice fi	An Interested Person,Wilma F. Frontiera 
Junction City KS , Filed MPC 455 toAssent And Waiver of Notice, Waiver of Sureties
11/26/2013	2013-11-26 00:00:00	0	2017-02-05 14:49:43
88794	88788		Counsel added	Attorney Wiener, Esq., Stephen A. representing Capital One Bank (USA), NA as of Thu Jul 21 00:00:00 EDT 2011	2011-07-21 00:00:00	0	2017-02-05 14:49:43
88903	88894		Counsel added	Attorney Kreppel, Esq., Gary Howard representing Capital One Bank (USA) as of Tue Nov 08 00:00:00 EST 2011	2011-11-08 00:00:00	1	2017-02-05 14:49:43
88945	88938		Corporate disclosure statement	Corporate disclosure statement filed by Corporate Party (S.J.C. Rule 1:21).	2013-09-10 00:00:00	4	2017-02-05 14:49:43
89112	89096		Notice of claim	Notice OF CLAIM	2013-03-06 00:00:00	0	2017-02-05 14:49:43
89200	89191		Counsel added	Attorney Wiener, Esq., Stephen A. representing Midland Funding LLC as of Mon Jan 10 00:00:00 EST 2011	2011-01-11 00:00:00	0	2017-02-05 14:49:43
89235	89229		Counsel added	Attorney Kesselman, Esq., Arthur representing Educap, Inc. D/B/A Loan to Learn as of Tue Dec 21 00:00:00 EST 2010	2010-12-21 00:00:00	0	2017-02-05 14:49:43
89397	89384		Suggestion of bankruptcy filed	Suggestion of bankruptcy of D01  ROBERT J. LEMELIN, JR. filed (11 U.S.C. 362).	2011-04-29 00:00:00	0	2017-02-05 14:49:43
89419	89411		Assent And Waiver Of Notice fi	An Interested Person,(4) Marilyn J Goodman; Michele Daley; Judith M Poirier; & Mary J Poirier , Filed MPC 455 toAssent and Waiver of Notice & Waiver of Sureties	2013-12-27 00:00:00	0	2017-02-05 14:49:43
89439	89430		Request for continuance	Parties jointly request that case be continued.  natp	2011-05-16 00:00:00	0	2017-02-05 14:49:43
89835	89828		Assent And Waiver Of Notice fi	An Interested Person,Heidi Moehlmann
Salzhausen, Germany , Filed MPC 455 toAssent and Waiver of Notice & Nomination	2014-06-17 00:00:00	0	2017-02-05 14:49:43
89836	89828		Assent And Waiver Of Notice fi	An Interested Person,Jennie Hoffman
Newcastle, ME , Filed MPC 455 toAssent and Waiver of Notice & Nomination	2014-06-17 00:00:00	0	2017-02-05 14:49:43
89849	89844		Counsel added	Attorney Wiener, Esq., Stephen A. representing Arrow Financial as of Tue Dec 21 00:00:00 EST 2010	2010-12-21 00:00:00	0	2017-02-05 14:49:43
89974	89968		Notice of claim	Notice of Claim	2013-05-10 00:00:00	0	2017-02-05 14:49:43
90071	90063		Corporate disclosure statement	Corporate disclosure statement filed by Corporate Party (S.J.C. Rule 1:21).	2014-04-22 00:00:00	4	2017-02-05 14:49:43
90234	90220		Counsel added	Attorney Maier, Esq., Frank J representing Miller, Steven as of Tue Aug 09 00:00:00 EDT 2011	2011-10-06 00:00:00	1	2017-02-05 14:49:43
90315	90305		Counsel added	Attorney Wiener, Esq., Stephen A. representing CAPITAL ONE BANK (USA) N.A. as of Mon Oct 03 00:00:00 EDT 2011	2011-10-03 00:00:00	1	2017-02-05 14:49:43
90333	90327		Assent And Waiver Of Notice fi	An Interested Person,Julie L. Whitney

Winchester MA , Filed MPC 455 toAssent And Waiver of Notice, Waiver of Sureties

12/27/2013	2013-12-27 00:00:00	0	2017-02-05 14:49:43
90334	90327		UCC filed	Uniform Counsel Certification Form Filed by	2013-12-27 00:00:00	0	2017-02-05 14:49:43
90473	90465		Suggestion of death filed	Suggestion of Death of	2014-07-09 00:00:00	0	2017-02-05 14:49:43
90519	90513		Counsel added	Attorney Wiener, Esq., Stephen A. representing HSBC Bank Nevada, NA as of Tue Dec 21 00:00:00 EST 2010	2010-12-21 00:00:00	0	2017-02-05 14:49:43
90598	90591		UCC filed	Uniform Counsel Certification Form Filed by	2012-04-19 00:00:00	0	2017-02-05 14:49:43
90620	90611		Notice to quit filed	Notice to quit filed	2010-07-13 00:00:00	2	2017-02-05 14:49:43
90624	90611		Military affidavit filed	Military Service and Rule 10 Affidavit	2010-07-29 00:00:00	5	2017-02-05 14:49:43
90644	90634		Counsel added	Attorney Kreppel, Esq., Gary Howard representing Capital One Bank (USA), N.A. as of Tue Nov 08 00:00:00 EST 2011	2011-11-08 00:00:00	1	2017-02-05 14:49:43
90748	90741		UCC filed	Uniform Counsel Certification Form Filed by	2013-01-14 00:00:00	0	2017-02-05 14:49:43
90771	90762		Notice to quit filed	Notice to quit filed	2011-04-28 00:00:00	2	2017-02-05 14:49:43
90774	90762		Military affidavit filed	Military Service and Rule 10 Affidavit	2011-05-10 00:00:00	4	2017-02-05 14:49:43
91004	90997		Assent And Waiver Of Notice fi	An Interested Person,Andrew D. Vernazza 

Wellesley MA , Filed MPC 455 toAssent And Waiver of Notice,  Waiver of Sureties

12/27/2013	2013-12-27 00:00:00	0	2017-02-05 14:49:43
91005	90997		Assent And Waiver Of Notice fi	An Interested Person,Mark R. Vernazza 

Milton MA , Filed MPC 455 toAssent And Waiver of Notice,  Waiver of Sureties

12/27/2013	2013-12-27 00:00:00	0	2017-02-05 14:49:43
91006	90997		Assent And Waiver Of Notice fi	An Interested Person,Andrew D. Vernazza, Trustee of the Robert A. Vernazza 

Wellesley MA , Filed MPC 455 toAssent And Waiver of Notice, Waiver of Sureties

12/27/2013	2013-12-27 00:00:00	0	2017-02-05 14:49:43
91277	91271		UCC filed	Uniform Counsel Certification Form Filed by	2013-12-27 00:00:00	0	2017-02-05 14:49:43
91279	91271		Assent And Waiver Of Notice fi	An Interested Person,Michael D. Bacon

New York NY , Filed MPC 455 toAssent And Waiver of Notice, Waiver of Sureties

12/27/2013	2013-12-27 00:00:00	0	2017-02-05 14:49:43
91280	91271		Assent And Waiver Of Notice fi	An Interested Person,Michael D. Bacon, Trustee of the Joan M. Bacon Revocable Trust- 2007

New York NY , Filed MPC 455 toAssent And Waiver of Notice,  Waiver of Sureties

12/27/2013	2013-12-27 00:00:00	0	2017-02-05 14:49:43
91445	91435		Notice to quit filed	Notice to quit filed	2010-07-14 00:00:00	3	2017-02-05 14:49:43
91503	91498		Notice of claim	Notice OF CLAIM	2013-02-04 00:00:00	0	2017-02-05 14:49:43
91604	91594		Military affidavit filed	Military Service and Rule 10 Affidavit	2012-08-22 00:00:00	0	2017-02-05 14:49:43
91635	91624		Counsel added	Attorney Kreppel, Esq., Gary Howard representing Capital One Bank (USA), N.A. as of Tue Oct 25 00:00:00 EDT 2011	2011-10-25 00:00:00	1	2017-02-05 14:49:43
91872	91865		UCC filed	Uniform Counsel Certification Form Filed by	2014-06-17 00:00:00	0	2017-02-05 14:49:43
91989	91966		Counsel added	Attorney O'Brien, Esq., James M. representing Caron's House of Carpets, Inc. as of Wed Dec 22 00:00:00 EST 2010	2010-12-22 00:00:00	0	2017-02-05 14:49:43
92003	91966		Counsel added	Attorney Neal, III, Esq., Edmond A representing Leveille, James as of Fri Mar 11 00:00:00 EST 2011	2011-03-22 00:00:00	11	2017-02-05 14:49:43
92009	91966		Counsel added	Attorney Neal, III, Esq., Edmond A representing Leveille Construction Co., Inc. as of 08/22/2011	2011-08-22 00:00:00	15	2017-02-05 14:49:43
92023	91966		Suggestion of bankruptcy filed	Suggestion of bankruptcy of  filed (11 U.S.C. 362).
James Leveille, Jr.	2011-11-29 00:00:00	21	2017-02-05 14:49:43
92029	91966		Counsel withdrawal	On this date 12/02/2011 Neal, III, Esq., Edmond A dismissed/withdrawn as Private Counsel for T.B.J.D., LLC	2011-12-23 00:00:00	22	2017-02-05 14:49:43
92030	91966		Counsel withdrawal	On this date 12/02/2011 Neal, III, Esq., Edmond A dismissed/withdrawn as Private Counsel for Leveille Construction Co., Inc.	2011-12-23 00:00:00	23	2017-02-05 14:49:43
92057	92048		Counsel added	Attorney Wiener, Esq., Stephen A. representing Midland Funding , LLC as of Thu Jul 21 00:00:00 EDT 2011	2011-07-21 00:00:00	0	2017-02-05 14:49:43
92132	92125		Assent And Waiver Of Notice fi	An Interested Person,Steven P. Cavallo

Marlborough MA , Filed MPC 455 toAssent And Waiver of Notice, Waiver of Sureties

12/27/2013	2013-12-27 00:00:00	0	2017-02-05 14:49:43
92133	92125		Assent And Waiver Of Notice fi	An Interested Person,Mary T. Cavallo

Ashby MA , Filed MPC 455 toAssent And Waiver of Notice, Waiver of Sureties

12/27/2013	2013-12-27 00:00:00	0	2017-02-05 14:49:43
92134	92125		UCC filed	Uniform Counsel Certification Form Filed by	2013-12-27 00:00:00	0	2017-02-05 14:49:43
92524	92505		Suggestion of bankruptcy filed	Suggestion of banruptcy of Hung D Dao filed (11 U.S.C. 362).
U.S. Bankruptcy Court Case #15-40018	2015-01-20 00:00:00	4	2017-02-05 14:49:43
92650	92638		Counsel added	Attorney Dial, Jr., Esq., Edward C. representing DHC Debt, LLC As Assignee of M & T  Credit Service as of Thu Dec 23 00:00:00 EST 2010	2010-12-23 00:00:00	0	2017-02-05 14:49:43
92655	92638		Suggestion of bankruptcy filed	Suggestion of bankruptcy of [James M. Letourneau] filed (11 U.S.C. 362).	2011-05-09 00:00:00	6	2017-02-05 14:49:43
92873	92865		UCC filed	Uniform Counsel Certification Form Filed by	2013-01-14 00:00:00	0	2017-02-05 14:49:43
92932	92925		Notice to quit filed	Notice to quit filed	2011-04-28 00:00:00	2	2017-02-05 14:49:43
92951	92938		Counsel added	Attorney Wiener, Esq., Stephen A. representing Midland Funding LLC as of Mon Jan 10 00:00:00 EST 2011	2011-01-11 00:00:00	0	2017-02-05 14:49:43
93053	93042		Counsel added	Attorney Kreppel, Esq., Gary Howard representing Capital One Bank (USA), N.A. as of Tue Oct 25 00:00:00 EDT 2011	2011-10-25 00:00:00	1	2017-02-05 14:49:43
93106	93095		Counsel added	Attorney Kreppel, Esq., Gary Howard representing Capital One Bank (USA), N.A. as of Tue Nov 08 00:00:00 EST 2011	2011-11-08 00:00:00	1	2017-02-05 14:49:43
93141	93131		Counsel added	Attorney Wilson, Esq., Kenneth C representing LVNV Funding LLC As Assignee of Sears as of Tue Aug 09 00:00:00 EDT 2011	2011-08-09 00:00:00	0	2017-02-05 14:49:43
93200	93183		Suggestion of bankruptcy filed	Suggestion of bankruptcy of Rosemary Brocco filed (11 U.S.C. 362).	2013-02-20 00:00:00	10	2017-02-05 14:49:43
93334	93323		Counsel added	Attorney Wilson, Esq., Kenneth C representing FIA Card Services,NA as of Tue Oct 04 00:00:00 EDT 2011	2011-10-04 00:00:00	1	2017-02-05 14:49:43
93376	93367		Counsel added	Attorney Reczek, Esq., Erin M. representing Chase Bank as of Fri Dec 24 00:00:00 EST 2010	2010-12-24 00:00:00	0	2017-02-05 14:49:43
93553	93543		UCC filed	Uniform Counsel Certification Form Filed by	2013-12-26 00:00:00	0	2017-02-05 14:49:43
93668	93657		Counsel added	Attorney Reczek, Esq., Erin M. representing Discover as of Fri Dec 24 00:00:00 EST 2010	2010-12-24 00:00:00	0	2017-02-05 14:49:43
93834	93828		Counsel added	Attorney Wilson, Esq., Kenneth C representing Capital One Bank (USA), NA as of Tue Oct 11 00:00:00 EDT 2011	2011-10-11 00:00:00	1	2017-02-05 14:49:43
93900	93890		Military affidavit filed	Military Service and Rule 10 Affidavit	2012-08-10 00:00:00	0	2017-02-05 14:49:43
94338	94327		Suggestion of bankruptcy filed	Suggestion of bankruptcy of Maria A Nova filed (11 U.S.C. 362).

Case #14-14672	2015-01-06 00:00:00	4	2017-02-05 14:49:43
94505	94455		Notice of intent to offer medi	Misc Entry:Plaintiff's Notice of Intention to Offer into Evidence Certified Medical Records and Expenses	2013-09-09 00:00:00	0	2017-02-05 14:49:43
94603	94595		Assent And Waiver Of Notice fi	An Interested Person,Renee D Wells; Joseph A Schiripo; Paula A Nolin; James R Schiripo; Michael L Schiripo; John A Schiripo , Filed MPC 455 toAssent and Waiver of Notice, Renunciation, Waiver of Sureties	2013-12-26 00:00:00	0	2017-02-05 14:49:43
94611	94595		Release of All Demands and Ass	Release of All Demands and Assent to Account by the Estate Recovery Unit, Comm. of MA	2014-04-28 00:00:00	0	2017-02-05 14:49:43
94612	94595		Release of All Demands and Ass	Release of All Demands and Assent to Account from Estate Recovery Unit	2014-07-31 00:00:00	0	2017-02-05 14:49:43
94643	94635		Counsel added	Attorney Caprera, Esq., Robert G representing Davison, Bert as of Thu Aug 11 00:00:00 EDT 2011	2011-08-31 00:00:00	0	2017-02-05 14:49:43
94780	94760		Assent And Waiver Of Notice fi	An Interested Person,Deborah L Miner Corrigan , Filed MPC 455 toassent and waiver of notice,	2013-04-01 00:00:00	0	2017-02-05 14:49:43
94848	94828		Suggestion of bankruptcy filed	Suggestion of bankruptcy of Susan Butland filed (11 U.S.C. 362).

Paying final amounts and preparing final application through attorney	2014-10-20 00:00:00	3	2017-02-05 14:49:43
95032	95015		Counsel added	On this date 04/19/2011 Wiener, Esq., Stephen A. added as Private Counsel for Midland Funding Llc As Assignee of Beneficial	2012-03-13 00:00:00	1	2017-02-05 14:49:43
95061	95052		Counsel added	Attorney Wiener, Esq., Stephen A. representing Capital One Bank (USA), N.A. as of Tue Nov 08 00:00:00 EST 2011	2011-11-08 00:00:00	1	2017-02-05 14:49:43
95213	95194		Suggestion of bankruptcy filed	Suggestion of bankruptcy of Ronald Cavanaugh A/K/A Ronald H. Cavanaugh, Jr. filed (11 U.S.C. 362).
	2012-05-16 00:00:00	1	2017-02-05 14:49:43
95225	95216		UCC filed	Uniform Counsel Certification Form Filed by	2012-04-20 00:00:00	0	2017-02-05 14:49:43
95255	95247		UCC filed	Uniform Counsel Certification Form Filed by	2013-01-14 00:00:00	0	2017-02-05 14:49:43
95320	95303		Counsel added	Attorney Kreppel, Esq., Gary Howard representing Capital One Bank (USA), NA as of Fri Jul 22 00:00:00 EDT 2011	2011-07-22 00:00:00	0	2017-02-05 14:49:43
95399	95384		Counsel added	Attorney Wiener, Esq., Stephen A. representing Capital One Bank as of Fri Dec 24 00:00:00 EST 2010	2010-12-24 00:00:00	0	2017-02-05 14:49:43
95596	95587		Notice to quit filed	Notice to quit filed	2011-04-28 00:00:00	2	2017-02-05 14:49:43
95816	95810		UCC filed	Uniform Counsel Certification Form Filed by Attorney Paul Nyer	2011-01-03 00:00:00	0	2017-02-05 14:49:43
95942	95913		Military affidavit filed	Military Service and Rule 10 Affidavit	2010-04-20 00:00:00	0	2017-02-05 14:49:43
96161	96148		Counsel added	Attorney Sandlin, Esq., Charlene M. representing Discover as of Tue Dec 28 00:00:00 EST 2010	2010-12-28 00:00:00	0	2017-02-05 14:49:43
96222	96216		Counsel added	Attorney Wilson, Esq., Kenneth C representing LVNV Funding LLC As Assignee of Citifinancial, Inc. as of Tue Oct 11 00:00:00 EDT 2011	2011-10-11 00:00:00	1	2017-02-05 14:49:43
96326	96318		Counsel added	Attorney Wiener, Esq., Stephen A. representing Capital One Bank (USA) N.A. as of Tue Nov 08 00:00:00 EST 2011	2011-11-08 00:00:00	1	2017-02-05 14:49:43
96350	96336		Suggestion of bankruptcy filed	Suggestion of bankruptcy of Linda J Hurley filed (11 U.S.C. 362).	2012-10-05 00:00:00	7	2017-02-05 14:49:43
96546	96537		Counsel added	Attorney Brugnoli, III, Esq., Carl A. representing Norfolk Financial Corp. As Assignee of Salute Gold Car as of Sat Sep 17 00:00:00 EDT 2011	2011-09-17 00:00:00	0	2017-02-05 14:49:43
96568	96557		Military affidavit filed	Military Service and Rule 10 Affidavit	2014-05-22 00:00:00	0	2017-02-05 14:49:43
96679	96672		Notice of claim	Notice of Claim	2014-08-20 00:00:00	0	2017-02-05 14:49:43
96691	96681		Counsel added	Attorney Kreppel, Esq., Gary Howard representing Capital One Bank (USA), NA as of Fri Jul 22 00:00:00 EDT 2011	2011-07-22 00:00:00	0	2017-02-05 14:49:43
96718	96702		Request for continuance	Parties jointly request that case be continued while payment is being made.	2011-12-21 00:00:00	0	2017-02-05 14:49:43
96739	96720		Appearance filed	appearance for plff filed 7-22-11	2011-08-05 00:00:00	0	2017-02-05 14:49:43
96786	96766		Counsel added	Attorney Solomon, Esq., Julie B representing Advantage Assets II, Inc as of Tue Oct 25 00:00:00 EDT 2011	2011-10-25 00:00:00	1	2017-02-05 14:49:43
96892	96880		Counsel added	Attorney Kreppel, Esq., Gary Howard representing Capital One Bank (USA) N.A. as of Wed Oct 12 00:00:00 EDT 2011	2011-10-12 00:00:00	1	2017-02-05 14:49:43
97034	96994		Suggestion of bankruptcy filed	Suggestion of bankruptcy of Mark J Barry filed (11 U.S.C. 362).
case number 14-12878	2014-06-28 00:00:00	8	2017-02-05 14:49:43
97096	97086		UCC filed	Uniform Counsel Certification Form Filed by	2012-04-18 00:00:00	0	2017-02-05 14:49:43
97101	97086		Notice of claim	Notice of Claim	2012-05-16 00:00:00	0	2017-02-05 14:49:43
97230	97206		Suggestion of bankruptcy filed	Suggestion of bankruptcy of Timothy Butland filed (11 U.S.C. 362).

in process of completing application and making payments	2014-10-20 00:00:00	3	2017-02-05 14:49:43
97280	97264		Counsel added	Attorney Olshan, Esq., Adam J. representing Capital One Bank as of 04/27/2011	2011-04-27 00:00:00	6	2017-02-05 14:49:43
97329	97320		Counsel added	Attorney Cohen, Esq., Jeremy Moss representing CACV as of Thu Aug 11 00:00:00 EDT 2011	2011-09-08 00:00:00	0	2017-02-05 14:49:43
97368	97358		UCC filed	Uniform Counsel Certification Form Filed by	2013-01-15 00:00:00	0	2017-02-05 14:49:43
97404	97387		Release of All Demands and Ass	Release of All Demands and Assent to Account	2014-08-25 00:00:00	0	2017-02-05 14:49:43
97577	97555		Suggestion of bankruptcy filed	Suggestion of bankruptcy of George Kelley, Jr. filed (11 U.S.C. 362).
Case # 15-40187	2015-02-11 00:00:00	6	2017-02-05 14:49:43
97608	97600		Assent And Waiver Of Notice fi	An Interested Person,(5)

Lucine A. Roat-Melton; Gregory M. Roat; Armine S.M. Roat; Bruce W. Roat; & Bruce R. Roat Trustee , Filed MPC 455 toAssent and Waiver of Notice	2014-06-16 00:00:00	0	2017-02-05 14:49:43
97654	97644		Counsel added	Attorney Wiener, Esq., Stephen A. representing Midland Funding as of Wed Dec 22 00:00:00 EST 2010	2010-12-22 00:00:00	0	2017-02-05 14:49:43
97698	97690		UCC filed	Uniform Counsel Certification Form Filed by	2012-04-20 00:00:00	0	2017-02-05 14:49:43
97858	97851		Notice to quit filed	Notice to quit filed	2011-04-28 00:00:00	2	2017-02-05 14:49:43
97920	97910		Counsel added	Attorney Solomon, Esq., Julie B representing Advantage Assets II, Inc. as of Wed Dec 22 00:00:00 EST 2010	2010-12-22 00:00:00	0	2017-02-05 14:49:43
97976	97956		Suggestion of bankruptcy filed	Suggestion of bankruptcy of D01  MARY L. ARMSTRONG filed 9/26/11  (11 U.S.C. 362).	2011-10-20 00:00:00	0	2017-02-05 14:49:43
98043	98034		UCC filed	Uniform Counsel Certification Form Filed by	2014-07-09 00:00:00	0	2017-02-05 14:49:43
98068	98052		Release of All Demands and Ass	Release of All Demands and Assent to Account	2013-07-11 00:00:00	0	2017-02-05 14:49:43
98203	98160		Counsel added	Attorney Feeney, Esq., Robert F representing Briarcliff Condominium Trust as of 03/10/2011	2011-03-24 00:00:00	2	2017-02-05 14:49:43
98223	98216		UCC filed	Uniform Counsel Certification Form Filed by	2012-04-20 00:00:00	0	2017-02-05 14:49:43
98269	98260		Counsel added	Attorney Sandlin, Esq., Charlene M. representing LVNV Funding as of Wed Dec 22 00:00:00 EST 2010	2010-12-22 00:00:00	0	2017-02-05 14:49:43
98407	98376		Appearance filed	limited appearance for plff filed 10-5-11	2011-10-06 00:00:00	0	2017-02-05 14:49:43
98480	98456		Request for continuance	Parties jointly request that case be continued while payment is being made at rate of $25.00 per month.

Beginning 5/15/15	2015-04-30 00:00:00	0	2017-02-05 14:49:43
98513	98510		Counsel added	Attorney Twomey, Esq., Linda J. representing Franklin Pain Associates as of Tue Nov 08 00:00:00 EST 2011	2011-11-08 00:00:00	1	2017-02-05 14:49:43
98569	98558		Counsel added	Attorney Wiener, Esq., Stephen A. representing Barclays Bank Delaware as of Wed Dec 22 00:00:00 EST 2010	2010-12-22 00:00:00	0	2017-02-05 14:49:43
98576	98558		Suggestion of bankruptcy filed	Suggestion of bankruptcy of Michael R Kent filed (11 U.S.C. 362).
	2011-07-19 00:00:00	4	2017-02-05 14:49:43
98610	98600		Military affidavit filed	Military Service and Rule 10 Affidavit	2010-01-14 00:00:00	0	2017-02-05 14:49:43
98626	98618		UCC filed	Uniform Counsel Certification Form Filed by	2013-01-15 00:00:00	0	2017-02-05 14:49:43
98666	98655		Counsel added	Attorney Wilson, Esq., Kenneth C representing LVNV Funding LLC As Assignee of Citibank Home Depot as of Tue Oct 11 00:00:00 EDT 2011	2011-10-11 00:00:00	1	2017-02-05 14:49:43
98726	98721		UCC filed	Uniform Counsel Certification Form Filed by	2012-04-23 00:00:00	0	2017-02-05 14:49:43
98783	98770		Counsel added	Attorney Cohen, Esq., Jeremy Moss representing LVNV Funding LLC as of Tue Oct 11 00:00:00 EDT 2011	2011-10-11 00:00:00	1	2017-02-05 14:49:43
98869	98857		Counsel added	Attorney Kreppel, Esq., Gary Howard representing Capital One Bank (USA), NA as of Fri Jul 22 00:00:00 EDT 2011	2011-07-22 00:00:00	0	2017-02-05 14:49:43
98897	98888		Counsel added	Attorney Wiener, Esq., Stephen A. representing Barclays Bank Delaware as of Wed Dec 22 00:00:00 EST 2010	2010-12-22 00:00:00	0	2017-02-05 14:49:43
98987	98983		UCC filed	Uniform Counsel Certification Form Filed by	2012-04-23 00:00:00	0	2017-02-05 14:49:43
99029	99008		Suggestion of bankruptcy filed	Suggestion of bankruptcy of D01  ALIRIO J. SOUZA, JR. filed (11 U.S.C. 362).	2011-01-03 00:00:00	0	2017-02-05 14:49:43
99173	99165		Counsel added	Attorney Sardella, Esq., Todd Michael representing Arrow Financial as of Thu Dec 23 00:00:00 EST 2010	2010-12-23 00:00:00	0	2017-02-05 14:49:43
99517	99508		Suggestion of death filed	Suggestion of Death of Mary T. Ehrlich	2010-12-16 00:00:00	0	2017-02-05 14:49:43
